ARM GAS  C:\Users\jisu8\AppData\Local\Temp\cc3d9zuK.s 			page 1


   1              		.cpu cortex-m0
   2              		.arch armv6s-m
   3              		.fpu softvfp
   4              		.eabi_attribute 20, 1
   5              		.eabi_attribute 21, 1
   6              		.eabi_attribute 23, 3
   7              		.eabi_attribute 24, 1
   8              		.eabi_attribute 25, 1
   9              		.eabi_attribute 26, 1
  10              		.eabi_attribute 30, 1
  11              		.eabi_attribute 34, 0
  12              		.eabi_attribute 18, 4
  13              		.file	"os.c"
  14              		.text
  15              	.Ltext0:
  16              		.cfi_sections	.debug_frame
  17              		.section	.text.Os_5ms_Task,"ax",%progbits
  18              		.align	1
  19              		.syntax unified
  20              		.code	16
  21              		.thumb_func
  23              	Os_5ms_Task:
  24              	.LFB42:
  25              		.file 1 "Core/Src/os.c"
   1:Core/Src/os.c **** #include "os.h"
   2:Core/Src/os.c **** #include "main.h"
   3:Core/Src/os.c **** #include "as5048.h"
   4:Core/Src/os.c **** Os_Var_t Os_Var;
   5:Core/Src/os.c **** 
   6:Core/Src/os.c **** static void Os_Calc_Period(uint8 idx);
   7:Core/Src/os.c **** static void Os_Calc_Runtime_Start(uint8 idx);
   8:Core/Src/os.c **** static void Os_Calc_Runtime_Stop(uint8 idx);
   9:Core/Src/os.c **** static void Os_1ms_Task(void);
  10:Core/Src/os.c **** static void Os_5ms_Task(void);
  11:Core/Src/os.c **** static void Os_10ms_Task(void);
  12:Core/Src/os.c **** static void Os_100ms_Task(void);
  13:Core/Src/os.c **** static void Os_Background_Task(void);
  14:Core/Src/os.c **** 
  15:Core/Src/os.c **** void Os_Init_Task(void)
  16:Core/Src/os.c **** {
  17:Core/Src/os.c **** 
  18:Core/Src/os.c **** }
  19:Core/Src/os.c **** 
  20:Core/Src/os.c **** static void Os_1ms_Task(void)
  21:Core/Src/os.c **** {
  22:Core/Src/os.c **** 	AS5048_Calc_Signal();
  23:Core/Src/os.c **** }
  24:Core/Src/os.c **** 
  25:Core/Src/os.c **** static void Os_5ms_Task(void)
  26:Core/Src/os.c **** {
  26              		.loc 1 26 1 view -0
  27              		.cfi_startproc
  28              		@ args = 0, pretend = 0, frame = 0
  29              		@ frame_needed = 0, uses_anonymous_args = 0
  30              		@ link register save eliminated.
  27:Core/Src/os.c **** 
  28:Core/Src/os.c **** }
ARM GAS  C:\Users\jisu8\AppData\Local\Temp\cc3d9zuK.s 			page 2


  31              		.loc 1 28 1 view .LVU1
  32              		@ sp needed
  33 0000 7047     		bx	lr
  34              		.cfi_endproc
  35              	.LFE42:
  37              		.section	.text.Os_10ms_Task,"ax",%progbits
  38              		.align	1
  39              		.syntax unified
  40              		.code	16
  41              		.thumb_func
  43              	Os_10ms_Task:
  44              	.LFB43:
  29:Core/Src/os.c **** 
  30:Core/Src/os.c **** static void Os_10ms_Task(void)
  31:Core/Src/os.c **** {
  45              		.loc 1 31 1 view -0
  46              		.cfi_startproc
  47              		@ args = 0, pretend = 0, frame = 0
  48              		@ frame_needed = 0, uses_anonymous_args = 0
  49              		@ link register save eliminated.
  32:Core/Src/os.c **** 	
  33:Core/Src/os.c **** }
  50              		.loc 1 33 1 view .LVU3
  51              		@ sp needed
  52 0000 7047     		bx	lr
  53              		.cfi_endproc
  54              	.LFE43:
  56              		.section	.text.Os_100ms_Task,"ax",%progbits
  57              		.align	1
  58              		.syntax unified
  59              		.code	16
  60              		.thumb_func
  62              	Os_100ms_Task:
  63              	.LFB44:
  34:Core/Src/os.c **** 
  35:Core/Src/os.c **** static void Os_100ms_Task(void)
  36:Core/Src/os.c **** {
  64              		.loc 1 36 1 view -0
  65              		.cfi_startproc
  66              		@ args = 0, pretend = 0, frame = 0
  67              		@ frame_needed = 0, uses_anonymous_args = 0
  68              		@ link register save eliminated.
  37:Core/Src/os.c **** 
  38:Core/Src/os.c **** }
  69              		.loc 1 38 1 view .LVU5
  70              		@ sp needed
  71 0000 7047     		bx	lr
  72              		.cfi_endproc
  73              	.LFE44:
  75              		.section	.text.Os_1ms_Task,"ax",%progbits
  76              		.align	1
  77              		.syntax unified
  78              		.code	16
  79              		.thumb_func
  81              	Os_1ms_Task:
  82              	.LFB41:
  21:Core/Src/os.c **** 	AS5048_Calc_Signal();
ARM GAS  C:\Users\jisu8\AppData\Local\Temp\cc3d9zuK.s 			page 3


  83              		.loc 1 21 1 view -0
  84              		.cfi_startproc
  85              		@ args = 0, pretend = 0, frame = 0
  86              		@ frame_needed = 0, uses_anonymous_args = 0
  87 0000 10B5     		push	{r4, lr}
  88              	.LCFI0:
  89              		.cfi_def_cfa_offset 8
  90              		.cfi_offset 4, -8
  91              		.cfi_offset 14, -4
  22:Core/Src/os.c **** }
  92              		.loc 1 22 2 view .LVU7
  93 0002 FFF7FEFF 		bl	AS5048_Calc_Signal
  94              	.LVL0:
  23:Core/Src/os.c **** 
  95              		.loc 1 23 1 is_stmt 0 view .LVU8
  96              		@ sp needed
  97 0006 10BD     		pop	{r4, pc}
  98              		.cfi_endproc
  99              	.LFE41:
 101              		.section	.text.Os_Init_Task,"ax",%progbits
 102              		.align	1
 103              		.global	Os_Init_Task
 104              		.syntax unified
 105              		.code	16
 106              		.thumb_func
 108              	Os_Init_Task:
 109              	.LFB40:
  16:Core/Src/os.c **** 
 110              		.loc 1 16 1 is_stmt 1 view -0
 111              		.cfi_startproc
 112              		@ args = 0, pretend = 0, frame = 0
 113              		@ frame_needed = 0, uses_anonymous_args = 0
 114              		@ link register save eliminated.
  18:Core/Src/os.c **** 
 115              		.loc 1 18 1 view .LVU10
 116              		@ sp needed
 117 0000 7047     		bx	lr
 118              		.cfi_endproc
 119              	.LFE40:
 121              		.section	.text.Os_Time_Handler,"ax",%progbits
 122              		.align	1
 123              		.global	Os_Time_Handler
 124              		.syntax unified
 125              		.code	16
 126              		.thumb_func
 128              	Os_Time_Handler:
 129              	.LFB46:
  39:Core/Src/os.c **** 
  40:Core/Src/os.c **** static void Os_Background_Task(void)
  41:Core/Src/os.c **** {
  42:Core/Src/os.c **** 
  43:Core/Src/os.c **** }
  44:Core/Src/os.c **** 
  45:Core/Src/os.c **** void Os_Time_Handler(void)
  46:Core/Src/os.c **** {
 130              		.loc 1 46 1 view -0
 131              		.cfi_startproc
ARM GAS  C:\Users\jisu8\AppData\Local\Temp\cc3d9zuK.s 			page 4


 132              		@ args = 0, pretend = 0, frame = 0
 133              		@ frame_needed = 0, uses_anonymous_args = 0
 134              		@ link register save eliminated.
  47:Core/Src/os.c **** 	Os_Var.Os_Counter.Os_100us_Counter++;
 135              		.loc 1 47 2 view .LVU12
 136              		.loc 1 47 19 is_stmt 0 view .LVU13
 137 0000 024A     		ldr	r2, .L7
 138              		.loc 1 47 36 view .LVU14
 139 0002 1368     		ldr	r3, [r2]
 140 0004 0133     		adds	r3, r3, #1
 141 0006 1360     		str	r3, [r2]
  48:Core/Src/os.c **** }
 142              		.loc 1 48 1 view .LVU15
 143              		@ sp needed
 144 0008 7047     		bx	lr
 145              	.L8:
 146 000a C046     		.align	2
 147              	.L7:
 148 000c 00000000 		.word	Os_Var
 149              		.cfi_endproc
 150              	.LFE46:
 152              		.section	.text.Os_Get_Tick_100us,"ax",%progbits
 153              		.align	1
 154              		.global	Os_Get_Tick_100us
 155              		.syntax unified
 156              		.code	16
 157              		.thumb_func
 159              	Os_Get_Tick_100us:
 160              	.LFB51:
  49:Core/Src/os.c **** 
  50:Core/Src/os.c **** void Os_Handler(void)
  51:Core/Src/os.c **** {
  52:Core/Src/os.c **** 	void(*fp)(void);
  53:Core/Src/os.c ****     if(Os_Var.Os_Task_Flag.Os_100ms_Flag == 1)
  54:Core/Src/os.c **** 	{
  55:Core/Src/os.c **** 		fp = Os_100ms_Task;
  56:Core/Src/os.c **** 		Os_Var.Os_Task_Add.Os_100ms_Address = fp;
  57:Core/Src/os.c **** 		Os_Var.Os_Task_Flag.Os_100ms_Flag = 0;
  58:Core/Src/os.c **** 		Os_Calc_Runtime_Start(OS_TASK_INDEX_100MS);
  59:Core/Src/os.c **** 		(void)Os_100ms_Task();
  60:Core/Src/os.c **** 		Os_Calc_Runtime_Stop(OS_TASK_INDEX_100MS);
  61:Core/Src/os.c **** 		Os_Calc_Period(OS_TASK_INDEX_100MS);
  62:Core/Src/os.c **** 	}
  63:Core/Src/os.c **** 	else
  64:Core/Src/os.c **** 	{
  65:Core/Src/os.c **** 		Os_Calc_Runtime_Start(OS_TASK_INDEX_BG);
  66:Core/Src/os.c **** 		(void)Os_Background_Task();
  67:Core/Src/os.c **** 		Os_Calc_Runtime_Stop(OS_TASK_INDEX_BG);
  68:Core/Src/os.c **** 		Os_Calc_Period(OS_TASK_INDEX_BG);
  69:Core/Src/os.c **** 	}
  70:Core/Src/os.c **** 
  71:Core/Src/os.c ****     return;
  72:Core/Src/os.c **** }
  73:Core/Src/os.c **** 
  74:Core/Src/os.c **** void Os_Handler_1ms(void)
  75:Core/Src/os.c **** {
  76:Core/Src/os.c **** 	if(Os_Var.Os_Counter.Os_1ms_Counter % 1 == 0)
ARM GAS  C:\Users\jisu8\AppData\Local\Temp\cc3d9zuK.s 			page 5


  77:Core/Src/os.c **** 	{
  78:Core/Src/os.c **** 		Os_Var.Os_Counter.Os_1ms_Counter++;
  79:Core/Src/os.c **** 		Os_Var.Os_Task_Flag.Os_1ms_Flag = 1;
  80:Core/Src/os.c **** 	}
  81:Core/Src/os.c **** 
  82:Core/Src/os.c **** 	if(Os_Var.Os_Counter.Os_1ms_Counter % 100 == 0)
  83:Core/Src/os.c **** 	{
  84:Core/Src/os.c **** 		Os_Var.Os_Counter.Os_100ms_Counter++;
  85:Core/Src/os.c **** 		Os_Var.Os_Task_Flag.Os_100ms_Flag = 1;
  86:Core/Src/os.c **** 	}
  87:Core/Src/os.c **** 	void(*fp)(void);
  88:Core/Src/os.c **** 	if(Os_Var.Os_Task_Flag.Os_1ms_Flag == 1)
  89:Core/Src/os.c **** 	{
  90:Core/Src/os.c **** 		fp = Os_1ms_Task;
  91:Core/Src/os.c **** 		Os_Var.Os_Task_Add.Os_1ms_Address = fp;
  92:Core/Src/os.c **** 		Os_Var.Os_Task_Flag.Os_1ms_Flag = 0;
  93:Core/Src/os.c **** 		Os_Calc_Runtime_Start(OS_TASK_INDEX_1MS);
  94:Core/Src/os.c **** 		(void)Os_1ms_Task();
  95:Core/Src/os.c **** 		Os_Calc_Runtime_Stop(OS_TASK_INDEX_1MS);
  96:Core/Src/os.c **** 		Os_Calc_Period(OS_TASK_INDEX_1MS);
  97:Core/Src/os.c **** 	}
  98:Core/Src/os.c **** }
  99:Core/Src/os.c **** 
 100:Core/Src/os.c **** void Os_Handler_5ms(void)
 101:Core/Src/os.c **** {
 102:Core/Src/os.c **** 	if(Os_Var.Os_Counter.Os_5ms_Counter % 1 == 0)
 103:Core/Src/os.c **** 	{
 104:Core/Src/os.c **** 		Os_Var.Os_Counter.Os_5ms_Counter++;
 105:Core/Src/os.c **** 		Os_Var.Os_Task_Flag.Os_5ms_Flag = 1;
 106:Core/Src/os.c **** 	}
 107:Core/Src/os.c **** 
 108:Core/Src/os.c **** 	void(*fp)(void);
 109:Core/Src/os.c **** 	if(Os_Var.Os_Task_Flag.Os_5ms_Flag == 1)
 110:Core/Src/os.c **** 	{
 111:Core/Src/os.c **** 		fp = Os_5ms_Task;
 112:Core/Src/os.c **** 		Os_Var.Os_Task_Add.Os_5ms_Address = fp;
 113:Core/Src/os.c **** 		Os_Var.Os_Task_Flag.Os_5ms_Flag = 0;
 114:Core/Src/os.c **** 		Os_Calc_Runtime_Start(OS_TASK_INDEX_5MS);
 115:Core/Src/os.c **** 		(void)Os_5ms_Task();
 116:Core/Src/os.c **** 		Os_Calc_Runtime_Stop(OS_TASK_INDEX_5MS);
 117:Core/Src/os.c **** 		Os_Calc_Period(OS_TASK_INDEX_5MS);
 118:Core/Src/os.c **** 	}
 119:Core/Src/os.c **** }
 120:Core/Src/os.c **** 
 121:Core/Src/os.c **** void Os_Handler_10ms(void)
 122:Core/Src/os.c **** {
 123:Core/Src/os.c **** 	Os_Var.Os_Counter.Os_10ms_Counter++;
 124:Core/Src/os.c **** 	Os_Var.Os_Task_Flag.Os_10ms_Flag = 1;
 125:Core/Src/os.c **** 	void(*fp)(void);
 126:Core/Src/os.c **** 	if(Os_Var.Os_Task_Flag.Os_10ms_Flag == 1)
 127:Core/Src/os.c **** 	{
 128:Core/Src/os.c **** 		fp = Os_10ms_Task;
 129:Core/Src/os.c **** 		Os_Var.Os_Task_Add.Os_10ms_Address = fp;
 130:Core/Src/os.c **** 		Os_Var.Os_Task_Flag.Os_10ms_Flag = 0;
 131:Core/Src/os.c **** 		Os_Calc_Runtime_Start(OS_TASK_INDEX_10MS);
 132:Core/Src/os.c **** 		(void)Os_10ms_Task();
 133:Core/Src/os.c **** 		Os_Calc_Runtime_Stop(OS_TASK_INDEX_10MS);
ARM GAS  C:\Users\jisu8\AppData\Local\Temp\cc3d9zuK.s 			page 6


 134:Core/Src/os.c **** 		Os_Calc_Period(OS_TASK_INDEX_10MS);
 135:Core/Src/os.c **** 	}
 136:Core/Src/os.c **** }
 137:Core/Src/os.c **** 
 138:Core/Src/os.c **** uint32 Os_Get_Tick_100us(void)
 139:Core/Src/os.c **** {
 161              		.loc 1 139 1 is_stmt 1 view -0
 162              		.cfi_startproc
 163              		@ args = 0, pretend = 0, frame = 0
 164              		@ frame_needed = 0, uses_anonymous_args = 0
 165              		@ link register save eliminated.
 140:Core/Src/os.c **** 	return Os_Var.Os_Counter.Os_100us_Counter;
 166              		.loc 1 140 2 view .LVU17
 167              		.loc 1 140 26 is_stmt 0 view .LVU18
 168 0000 014B     		ldr	r3, .L10
 169 0002 1868     		ldr	r0, [r3]
 141:Core/Src/os.c **** }
 170              		.loc 1 141 1 view .LVU19
 171              		@ sp needed
 172 0004 7047     		bx	lr
 173              	.L11:
 174 0006 C046     		.align	2
 175              	.L10:
 176 0008 00000000 		.word	Os_Var
 177              		.cfi_endproc
 178              	.LFE51:
 180              		.section	.text.Os_Calc_Runtime_Start,"ax",%progbits
 181              		.align	1
 182              		.syntax unified
 183              		.code	16
 184              		.thumb_func
 186              	Os_Calc_Runtime_Start:
 187              	.LVL1:
 188              	.LFB53:
 142:Core/Src/os.c **** 
 143:Core/Src/os.c **** static void Os_Calc_Period(uint8 idx)
 144:Core/Src/os.c **** {
 145:Core/Src/os.c **** 	uint32 OS_TimeLoc=0;
 146:Core/Src/os.c **** 	uint32 OS_TimeOldLoc=0;
 147:Core/Src/os.c **** 	uint32 Os_TimeDiffLoc=0;
 148:Core/Src/os.c **** 
 149:Core/Src/os.c **** 	OS_TimeLoc = Os_Get_Tick_100us();
 150:Core/Src/os.c **** 
 151:Core/Src/os.c **** 	switch(idx)
 152:Core/Src/os.c **** 	{
 153:Core/Src/os.c **** 		case OS_TASK_INDEX_1MS : 
 154:Core/Src/os.c **** 			OS_TimeOldLoc = Os_Var.Os_Tick_Period.Os_1ms_Tick_Period;
 155:Core/Src/os.c **** 		break;
 156:Core/Src/os.c **** 		case OS_TASK_INDEX_5MS : 
 157:Core/Src/os.c **** 			OS_TimeOldLoc = Os_Var.Os_Tick_Period.Os_5ms_Tick_Period;
 158:Core/Src/os.c **** 		break;
 159:Core/Src/os.c **** 		case OS_TASK_INDEX_10MS : 
 160:Core/Src/os.c **** 			OS_TimeOldLoc = Os_Var.Os_Tick_Period.Os_10ms_Tick_Period;
 161:Core/Src/os.c **** 		break;
 162:Core/Src/os.c **** 		case OS_TASK_INDEX_100MS : 
 163:Core/Src/os.c **** 			OS_TimeOldLoc = Os_Var.Os_Tick_Period.Os_100ms_Tick_Period;
 164:Core/Src/os.c **** 		break;
ARM GAS  C:\Users\jisu8\AppData\Local\Temp\cc3d9zuK.s 			page 7


 165:Core/Src/os.c **** 	}
 166:Core/Src/os.c **** 
 167:Core/Src/os.c **** 	Os_TimeDiffLoc = OS_TimeLoc - OS_TimeOldLoc;
 168:Core/Src/os.c **** 	OS_TimeOldLoc = OS_TimeLoc;
 169:Core/Src/os.c **** 	
 170:Core/Src/os.c **** 	switch(idx)
 171:Core/Src/os.c **** 	{
 172:Core/Src/os.c **** 		case OS_TASK_INDEX_1MS : 
 173:Core/Src/os.c **** 			Os_Var.Os_Period.Os_1ms_Period = Os_TimeDiffLoc;
 174:Core/Src/os.c **** 			Os_Var.Os_Tick_Period.Os_1ms_Tick_Period = OS_TimeOldLoc;
 175:Core/Src/os.c **** 		break;
 176:Core/Src/os.c **** 		case OS_TASK_INDEX_5MS : 
 177:Core/Src/os.c **** 			Os_Var.Os_Period.Os_5ms_Period = Os_TimeDiffLoc;
 178:Core/Src/os.c **** 			Os_Var.Os_Tick_Period.Os_5ms_Tick_Period = OS_TimeOldLoc;
 179:Core/Src/os.c **** 		break;
 180:Core/Src/os.c **** 		case OS_TASK_INDEX_10MS : 
 181:Core/Src/os.c **** 			Os_Var.Os_Period.Os_10ms_Period = Os_TimeDiffLoc;
 182:Core/Src/os.c **** 			Os_Var.Os_Tick_Period.Os_10ms_Tick_Period = OS_TimeOldLoc;
 183:Core/Src/os.c **** 		break;
 184:Core/Src/os.c **** 		case OS_TASK_INDEX_100MS : 
 185:Core/Src/os.c **** 			Os_Var.Os_Period.Os_100ms_Period = Os_TimeDiffLoc;
 186:Core/Src/os.c **** 			Os_Var.Os_Tick_Period.Os_100ms_Tick_Period = OS_TimeOldLoc;
 187:Core/Src/os.c **** 		break;
 188:Core/Src/os.c **** 	}
 189:Core/Src/os.c **** 	
 190:Core/Src/os.c **** 	return;
 191:Core/Src/os.c **** }
 192:Core/Src/os.c **** 
 193:Core/Src/os.c **** static void Os_Calc_Runtime_Start(uint8 idx)
 194:Core/Src/os.c **** {
 189              		.loc 1 194 1 is_stmt 1 view -0
 190              		.cfi_startproc
 191              		@ args = 0, pretend = 0, frame = 0
 192              		@ frame_needed = 0, uses_anonymous_args = 0
 193              		.loc 1 194 1 is_stmt 0 view .LVU21
 194 0000 10B5     		push	{r4, lr}
 195              	.LCFI1:
 196              		.cfi_def_cfa_offset 8
 197              		.cfi_offset 4, -8
 198              		.cfi_offset 14, -4
 199 0002 0400     		movs	r4, r0
 195:Core/Src/os.c **** 	uint32 OS_TimeLoc=0;
 200              		.loc 1 195 2 is_stmt 1 view .LVU22
 201              	.LVL2:
 196:Core/Src/os.c **** 
 197:Core/Src/os.c **** 	OS_TimeLoc = Os_Get_Tick_100us();
 202              		.loc 1 197 2 view .LVU23
 203              		.loc 1 197 15 is_stmt 0 view .LVU24
 204 0004 FFF7FEFF 		bl	Os_Get_Tick_100us
 205              	.LVL3:
 198:Core/Src/os.c **** 
 199:Core/Src/os.c **** 	switch(idx)
 206              		.loc 1 199 2 is_stmt 1 view .LVU25
 207 0008 032C     		cmp	r4, #3
 208 000a 0FD0     		beq	.L13
 209 000c 06D8     		bhi	.L14
 210 000e 012C     		cmp	r4, #1
ARM GAS  C:\Users\jisu8\AppData\Local\Temp\cc3d9zuK.s 			page 8


 211 0010 09D0     		beq	.L15
 212 0012 022C     		cmp	r4, #2
 213 0014 09D1     		bne	.L12
 200:Core/Src/os.c **** 	{
 201:Core/Src/os.c **** 		case OS_TASK_INDEX_1MS : 
 202:Core/Src/os.c **** 			Os_Var.Os_Tick_Runtime.Os_1ms_Tick_Runtime_Start = OS_TimeLoc;
 203:Core/Src/os.c **** 		break;
 204:Core/Src/os.c **** 		case OS_TASK_INDEX_5MS : 
 205:Core/Src/os.c **** 			Os_Var.Os_Tick_Runtime.Os_5ms_Tick_Runtime_Start = OS_TimeLoc;
 214              		.loc 1 205 4 view .LVU26
 215              		.loc 1 205 53 is_stmt 0 view .LVU27
 216 0016 074B     		ldr	r3, .L19
 217 0018 D861     		str	r0, [r3, #28]
 206:Core/Src/os.c **** 		break;
 218              		.loc 1 206 3 is_stmt 1 view .LVU28
 219 001a 06E0     		b	.L12
 220              	.L14:
 199:Core/Src/os.c **** 	{
 221              		.loc 1 199 2 is_stmt 0 view .LVU29
 222 001c 042C     		cmp	r4, #4
 223 001e 04D1     		bne	.L12
 207:Core/Src/os.c **** 		case OS_TASK_INDEX_10MS : 
 208:Core/Src/os.c **** 			Os_Var.Os_Tick_Runtime.Os_10ms_Tick_Runtime_Start = OS_TimeLoc;
 209:Core/Src/os.c **** 		break;
 210:Core/Src/os.c **** 		case OS_TASK_INDEX_100MS : 
 211:Core/Src/os.c **** 			Os_Var.Os_Tick_Runtime.Os_100ms_Tick_Runtime_Start = OS_TimeLoc;
 224              		.loc 1 211 4 is_stmt 1 view .LVU30
 225              		.loc 1 211 55 is_stmt 0 view .LVU31
 226 0020 044B     		ldr	r3, .L19
 227 0022 D862     		str	r0, [r3, #44]
 212:Core/Src/os.c **** 		break;
 228              		.loc 1 212 3 is_stmt 1 view .LVU32
 213:Core/Src/os.c **** 	}
 214:Core/Src/os.c **** 
 215:Core/Src/os.c **** 	return;
 229              		.loc 1 215 2 view .LVU33
 230 0024 01E0     		b	.L12
 231              	.L15:
 202:Core/Src/os.c **** 		break;
 232              		.loc 1 202 4 view .LVU34
 202:Core/Src/os.c **** 		break;
 233              		.loc 1 202 53 is_stmt 0 view .LVU35
 234 0026 034B     		ldr	r3, .L19
 235 0028 5861     		str	r0, [r3, #20]
 203:Core/Src/os.c **** 		case OS_TASK_INDEX_5MS : 
 236              		.loc 1 203 3 is_stmt 1 view .LVU36
 237              	.L12:
 216:Core/Src/os.c **** }
 238              		.loc 1 216 1 is_stmt 0 view .LVU37
 239              		@ sp needed
 240 002a 10BD     		pop	{r4, pc}
 241              	.L13:
 208:Core/Src/os.c **** 		break;
 242              		.loc 1 208 4 is_stmt 1 view .LVU38
 208:Core/Src/os.c **** 		break;
 243              		.loc 1 208 54 is_stmt 0 view .LVU39
 244 002c 014B     		ldr	r3, .L19
ARM GAS  C:\Users\jisu8\AppData\Local\Temp\cc3d9zuK.s 			page 9


 245 002e 5862     		str	r0, [r3, #36]
 209:Core/Src/os.c **** 		case OS_TASK_INDEX_100MS : 
 246              		.loc 1 209 3 is_stmt 1 view .LVU40
 247 0030 FBE7     		b	.L12
 248              	.L20:
 249 0032 C046     		.align	2
 250              	.L19:
 251 0034 00000000 		.word	Os_Var
 252              		.cfi_endproc
 253              	.LFE53:
 255              		.section	.text.Os_Calc_Runtime_Stop,"ax",%progbits
 256              		.align	1
 257              		.syntax unified
 258              		.code	16
 259              		.thumb_func
 261              	Os_Calc_Runtime_Stop:
 262              	.LVL4:
 263              	.LFB54:
 217:Core/Src/os.c **** 
 218:Core/Src/os.c **** static void Os_Calc_Runtime_Stop(uint8 idx)
 219:Core/Src/os.c **** {
 264              		.loc 1 219 1 view -0
 265              		.cfi_startproc
 266              		@ args = 0, pretend = 0, frame = 0
 267              		@ frame_needed = 0, uses_anonymous_args = 0
 268              		.loc 1 219 1 is_stmt 0 view .LVU42
 269 0000 10B5     		push	{r4, lr}
 270              	.LCFI2:
 271              		.cfi_def_cfa_offset 8
 272              		.cfi_offset 4, -8
 273              		.cfi_offset 14, -4
 274 0002 0400     		movs	r4, r0
 220:Core/Src/os.c **** 	uint32 OS_TimeLoc=0;
 275              		.loc 1 220 2 is_stmt 1 view .LVU43
 276              	.LVL5:
 221:Core/Src/os.c **** 	uint32 OS_TimeOldLoc=0;
 277              		.loc 1 221 2 view .LVU44
 222:Core/Src/os.c **** 	uint32 Os_TimeDiffLoc=0;
 278              		.loc 1 222 2 view .LVU45
 223:Core/Src/os.c **** 
 224:Core/Src/os.c **** 	OS_TimeLoc = Os_Get_Tick_100us();
 279              		.loc 1 224 2 view .LVU46
 280              		.loc 1 224 15 is_stmt 0 view .LVU47
 281 0004 FFF7FEFF 		bl	Os_Get_Tick_100us
 282              	.LVL6:
 225:Core/Src/os.c **** 
 226:Core/Src/os.c **** 	switch(idx)
 283              		.loc 1 226 2 is_stmt 1 view .LVU48
 284 0008 032C     		cmp	r4, #3
 285 000a 1ED0     		beq	.L22
 286 000c 08D8     		bhi	.L23
 287 000e 012C     		cmp	r4, #1
 288 0010 18D0     		beq	.L24
 289 0012 022C     		cmp	r4, #2
 290 0014 02D1     		bne	.L34
 227:Core/Src/os.c **** 	{
 228:Core/Src/os.c **** 		case OS_TASK_INDEX_1MS : 
ARM GAS  C:\Users\jisu8\AppData\Local\Temp\cc3d9zuK.s 			page 10


 229:Core/Src/os.c **** 			OS_TimeOldLoc = Os_Var.Os_Tick_Runtime.Os_1ms_Tick_Runtime_Start;
 230:Core/Src/os.c **** 		break;
 231:Core/Src/os.c **** 		case OS_TASK_INDEX_5MS : 
 232:Core/Src/os.c **** 			OS_TimeOldLoc = Os_Var.Os_Tick_Runtime.Os_5ms_Tick_Runtime_Start;
 291              		.loc 1 232 4 view .LVU49
 292              		.loc 1 232 18 is_stmt 0 view .LVU50
 293 0016 154B     		ldr	r3, .L36
 294 0018 DB69     		ldr	r3, [r3, #28]
 295              	.LVL7:
 233:Core/Src/os.c **** 		break;
 296              		.loc 1 233 3 is_stmt 1 view .LVU51
 297 001a 07E0     		b	.L26
 298              	.LVL8:
 299              	.L34:
 226:Core/Src/os.c **** 	{
 300              		.loc 1 226 2 is_stmt 0 view .LVU52
 301 001c 0023     		movs	r3, #0
 302 001e 05E0     		b	.L26
 303              	.L23:
 304 0020 042C     		cmp	r4, #4
 305 0022 02D1     		bne	.L35
 234:Core/Src/os.c **** 		case OS_TASK_INDEX_10MS : 
 235:Core/Src/os.c **** 			OS_TimeOldLoc = Os_Var.Os_Tick_Runtime.Os_10ms_Tick_Runtime_Start;
 236:Core/Src/os.c **** 		break;
 237:Core/Src/os.c **** 		case OS_TASK_INDEX_100MS : 
 238:Core/Src/os.c **** 			OS_TimeOldLoc = Os_Var.Os_Tick_Runtime.Os_100ms_Tick_Runtime_Start;
 306              		.loc 1 238 4 is_stmt 1 view .LVU53
 307              		.loc 1 238 18 is_stmt 0 view .LVU54
 308 0024 114B     		ldr	r3, .L36
 309 0026 DB6A     		ldr	r3, [r3, #44]
 310              	.LVL9:
 239:Core/Src/os.c **** 		break;
 311              		.loc 1 239 3 is_stmt 1 view .LVU55
 312 0028 00E0     		b	.L26
 313              	.LVL10:
 314              	.L35:
 226:Core/Src/os.c **** 	{
 315              		.loc 1 226 2 is_stmt 0 view .LVU56
 316 002a 0023     		movs	r3, #0
 317              	.LVL11:
 318              	.L26:
 240:Core/Src/os.c **** 	}
 241:Core/Src/os.c **** 
 242:Core/Src/os.c **** 	Os_TimeDiffLoc = OS_TimeLoc - OS_TimeOldLoc;
 319              		.loc 1 242 2 is_stmt 1 view .LVU57
 320              		.loc 1 242 17 is_stmt 0 view .LVU58
 321 002c C31A     		subs	r3, r0, r3
 322              	.LVL12:
 243:Core/Src/os.c **** 
 244:Core/Src/os.c **** 	switch(idx)
 323              		.loc 1 244 2 is_stmt 1 view .LVU59
 324 002e 032C     		cmp	r4, #3
 325 0030 18D0     		beq	.L28
 326 0032 0DD8     		bhi	.L29
 327 0034 012C     		cmp	r4, #1
 328 0036 11D0     		beq	.L30
 329 0038 022C     		cmp	r4, #2
ARM GAS  C:\Users\jisu8\AppData\Local\Temp\cc3d9zuK.s 			page 11


 330 003a 12D1     		bne	.L21
 245:Core/Src/os.c **** 	{
 246:Core/Src/os.c **** 		case OS_TASK_INDEX_1MS : 
 247:Core/Src/os.c **** 			Os_Var.Os_Runtime.Os_1ms_Runtime = Os_TimeDiffLoc;
 248:Core/Src/os.c **** 			Os_Var.Os_Tick_Runtime.Os_1ms_Tick_Runtime_Stop = OS_TimeLoc;
 249:Core/Src/os.c **** 		break;		
 250:Core/Src/os.c **** 		case OS_TASK_INDEX_5MS : 
 251:Core/Src/os.c **** 			Os_Var.Os_Runtime.Os_5ms_Runtime = Os_TimeDiffLoc;
 331              		.loc 1 251 4 view .LVU60
 332              		.loc 1 251 37 is_stmt 0 view .LVU61
 333 003c 0B4A     		ldr	r2, .L36
 334 003e 9364     		str	r3, [r2, #72]
 252:Core/Src/os.c **** 			Os_Var.Os_Tick_Runtime.Os_5ms_Tick_Runtime_Stop = OS_TimeLoc;
 335              		.loc 1 252 4 is_stmt 1 view .LVU62
 336              		.loc 1 252 52 is_stmt 0 view .LVU63
 337 0040 1062     		str	r0, [r2, #32]
 253:Core/Src/os.c **** 		break;
 338              		.loc 1 253 3 is_stmt 1 view .LVU64
 339 0042 0EE0     		b	.L21
 340              	.LVL13:
 341              	.L24:
 229:Core/Src/os.c **** 		break;
 342              		.loc 1 229 4 view .LVU65
 229:Core/Src/os.c **** 		break;
 343              		.loc 1 229 18 is_stmt 0 view .LVU66
 344 0044 094B     		ldr	r3, .L36
 345 0046 5B69     		ldr	r3, [r3, #20]
 346              	.LVL14:
 230:Core/Src/os.c **** 		case OS_TASK_INDEX_5MS : 
 347              		.loc 1 230 3 is_stmt 1 view .LVU67
 348 0048 F0E7     		b	.L26
 349              	.LVL15:
 350              	.L22:
 235:Core/Src/os.c **** 		break;
 351              		.loc 1 235 4 view .LVU68
 235:Core/Src/os.c **** 		break;
 352              		.loc 1 235 18 is_stmt 0 view .LVU69
 353 004a 084B     		ldr	r3, .L36
 354 004c 5B6A     		ldr	r3, [r3, #36]
 355              	.LVL16:
 236:Core/Src/os.c **** 		case OS_TASK_INDEX_100MS : 
 356              		.loc 1 236 3 is_stmt 1 view .LVU70
 357 004e EDE7     		b	.L26
 358              	.LVL17:
 359              	.L29:
 244:Core/Src/os.c **** 	{
 360              		.loc 1 244 2 is_stmt 0 view .LVU71
 361 0050 042C     		cmp	r4, #4
 362 0052 06D1     		bne	.L21
 254:Core/Src/os.c **** 		case OS_TASK_INDEX_10MS : 
 255:Core/Src/os.c **** 			Os_Var.Os_Runtime.Os_10ms_Runtime = Os_TimeDiffLoc;
 256:Core/Src/os.c **** 			Os_Var.Os_Tick_Runtime.Os_10ms_Tick_Runtime_Stop = OS_TimeLoc;
 257:Core/Src/os.c **** 		break;
 258:Core/Src/os.c **** 		case OS_TASK_INDEX_100MS : 
 259:Core/Src/os.c **** 			Os_Var.Os_Runtime.Os_100ms_Runtime = Os_TimeDiffLoc;
 363              		.loc 1 259 4 is_stmt 1 view .LVU72
 364              		.loc 1 259 39 is_stmt 0 view .LVU73
ARM GAS  C:\Users\jisu8\AppData\Local\Temp\cc3d9zuK.s 			page 12


 365 0054 054A     		ldr	r2, .L36
 366 0056 1365     		str	r3, [r2, #80]
 260:Core/Src/os.c **** 			Os_Var.Os_Tick_Runtime.Os_100ms_Tick_Runtime_Stop = OS_TimeLoc;
 367              		.loc 1 260 4 is_stmt 1 view .LVU74
 368              		.loc 1 260 54 is_stmt 0 view .LVU75
 369 0058 1063     		str	r0, [r2, #48]
 261:Core/Src/os.c **** 		break;
 370              		.loc 1 261 3 is_stmt 1 view .LVU76
 262:Core/Src/os.c **** 	}
 263:Core/Src/os.c **** 
 264:Core/Src/os.c **** 	return;
 371              		.loc 1 264 2 view .LVU77
 372 005a 02E0     		b	.L21
 373              	.L30:
 247:Core/Src/os.c **** 			Os_Var.Os_Tick_Runtime.Os_1ms_Tick_Runtime_Stop = OS_TimeLoc;
 374              		.loc 1 247 4 view .LVU78
 247:Core/Src/os.c **** 			Os_Var.Os_Tick_Runtime.Os_1ms_Tick_Runtime_Stop = OS_TimeLoc;
 375              		.loc 1 247 37 is_stmt 0 view .LVU79
 376 005c 034A     		ldr	r2, .L36
 377 005e 5364     		str	r3, [r2, #68]
 248:Core/Src/os.c **** 		break;		
 378              		.loc 1 248 4 is_stmt 1 view .LVU80
 248:Core/Src/os.c **** 		break;		
 379              		.loc 1 248 52 is_stmt 0 view .LVU81
 380 0060 9061     		str	r0, [r2, #24]
 249:Core/Src/os.c **** 		case OS_TASK_INDEX_5MS : 
 381              		.loc 1 249 3 is_stmt 1 view .LVU82
 382              	.L21:
 265:Core/Src/os.c **** }...
 383              		.loc 1 265 1 is_stmt 0 view .LVU83
 384              		@ sp needed
 385 0062 10BD     		pop	{r4, pc}
 386              	.L28:
 255:Core/Src/os.c **** 			Os_Var.Os_Runtime.Os_10ms_Runtime = Os_TimeDiffLoc;
 387              		.loc 1 255 4 is_stmt 1 view .LVU84
 255:Core/Src/os.c **** 			Os_Var.Os_Runtime.Os_10ms_Runtime = Os_TimeDiffLoc;
 388              		.loc 1 255 38 is_stmt 0 view .LVU85
 389 0064 014A     		ldr	r2, .L36
 390 0066 D364     		str	r3, [r2, #76]
 256:Core/Src/os.c **** 			Os_Var.Os_Tick_Runtime.Os_10ms_Tick_Runtime_Stop = OS_TimeLoc;
 391              		.loc 1 256 4 is_stmt 1 view .LVU86
 256:Core/Src/os.c **** 			Os_Var.Os_Tick_Runtime.Os_10ms_Tick_Runtime_Stop = OS_TimeLoc;
 392              		.loc 1 256 53 is_stmt 0 view .LVU87
 393 0068 9062     		str	r0, [r2, #40]
 257:Core/Src/os.c **** 		break;
 394              		.loc 1 257 3 is_stmt 1 view .LVU88
 395 006a FAE7     		b	.L21
 396              	.L37:
 397              		.align	2
 398              	.L36:
 399 006c 00000000 		.word	Os_Var
 400              		.cfi_endproc
 401              	.LFE54:
 403              		.section	.text.Os_Calc_Period,"ax",%progbits
 404              		.align	1
 405              		.syntax unified
 406              		.code	16
ARM GAS  C:\Users\jisu8\AppData\Local\Temp\cc3d9zuK.s 			page 13


 407              		.thumb_func
 409              	Os_Calc_Period:
 410              	.LVL18:
 411              	.LFB52:
 144:Core/Src/os.c **** {
 412              		.loc 1 144 1 view -0
 413              		.cfi_startproc
 414              		@ args = 0, pretend = 0, frame = 0
 415              		@ frame_needed = 0, uses_anonymous_args = 0
 144:Core/Src/os.c **** {
 416              		.loc 1 144 1 is_stmt 0 view .LVU90
 417 0000 10B5     		push	{r4, lr}
 418              	.LCFI3:
 419              		.cfi_def_cfa_offset 8
 420              		.cfi_offset 4, -8
 421              		.cfi_offset 14, -4
 422 0002 0400     		movs	r4, r0
 145:Core/Src/os.c **** 	uint32 OS_TimeLoc=0;
 423              		.loc 1 145 2 is_stmt 1 view .LVU91
 424              	.LVL19:
 146:Core/Src/os.c **** 	uint32 OS_TimeOldLoc=0;
 425              		.loc 1 146 2 view .LVU92
 147:Core/Src/os.c **** 	uint32 Os_TimeDiffLoc=0;
 426              		.loc 1 147 2 view .LVU93
 149:Core/Src/os.c **** 	OS_TimeLoc = Os_Get_Tick_100us();
 427              		.loc 1 149 2 view .LVU94
 149:Core/Src/os.c **** 	OS_TimeLoc = Os_Get_Tick_100us();
 428              		.loc 1 149 15 is_stmt 0 view .LVU95
 429 0004 FFF7FEFF 		bl	Os_Get_Tick_100us
 430              	.LVL20:
 151:Core/Src/os.c **** 	switch(idx)
 431              		.loc 1 151 2 is_stmt 1 view .LVU96
 432 0008 032C     		cmp	r4, #3
 433 000a 1ED0     		beq	.L39
 434 000c 08D8     		bhi	.L40
 435 000e 012C     		cmp	r4, #1
 436 0010 18D0     		beq	.L41
 437 0012 022C     		cmp	r4, #2
 438 0014 02D1     		bne	.L51
 157:Core/Src/os.c **** 			OS_TimeOldLoc = Os_Var.Os_Tick_Period.Os_5ms_Tick_Period;
 439              		.loc 1 157 4 view .LVU97
 157:Core/Src/os.c **** 			OS_TimeOldLoc = Os_Var.Os_Tick_Period.Os_5ms_Tick_Period;
 440              		.loc 1 157 18 is_stmt 0 view .LVU98
 441 0016 154B     		ldr	r3, .L53
 442 0018 9B6B     		ldr	r3, [r3, #56]
 443              	.LVL21:
 158:Core/Src/os.c **** 		break;
 444              		.loc 1 158 3 is_stmt 1 view .LVU99
 445 001a 07E0     		b	.L43
 446              	.LVL22:
 447              	.L51:
 151:Core/Src/os.c **** 	switch(idx)
 448              		.loc 1 151 2 is_stmt 0 view .LVU100
 449 001c 0023     		movs	r3, #0
 450 001e 05E0     		b	.L43
 451              	.L40:
 452 0020 042C     		cmp	r4, #4
ARM GAS  C:\Users\jisu8\AppData\Local\Temp\cc3d9zuK.s 			page 14


 453 0022 02D1     		bne	.L52
 163:Core/Src/os.c **** 			OS_TimeOldLoc = Os_Var.Os_Tick_Period.Os_100ms_Tick_Period;
 454              		.loc 1 163 4 is_stmt 1 view .LVU101
 163:Core/Src/os.c **** 			OS_TimeOldLoc = Os_Var.Os_Tick_Period.Os_100ms_Tick_Period;
 455              		.loc 1 163 18 is_stmt 0 view .LVU102
 456 0024 114B     		ldr	r3, .L53
 457 0026 1B6C     		ldr	r3, [r3, #64]
 458              	.LVL23:
 164:Core/Src/os.c **** 		break;
 459              		.loc 1 164 3 is_stmt 1 view .LVU103
 460 0028 00E0     		b	.L43
 461              	.LVL24:
 462              	.L52:
 151:Core/Src/os.c **** 	switch(idx)
 463              		.loc 1 151 2 is_stmt 0 view .LVU104
 464 002a 0023     		movs	r3, #0
 465              	.LVL25:
 466              	.L43:
 167:Core/Src/os.c **** 	Os_TimeDiffLoc = OS_TimeLoc - OS_TimeOldLoc;
 467              		.loc 1 167 2 is_stmt 1 view .LVU105
 167:Core/Src/os.c **** 	Os_TimeDiffLoc = OS_TimeLoc - OS_TimeOldLoc;
 468              		.loc 1 167 17 is_stmt 0 view .LVU106
 469 002c C31A     		subs	r3, r0, r3
 470              	.LVL26:
 168:Core/Src/os.c **** 	OS_TimeOldLoc = OS_TimeLoc;
 471              		.loc 1 168 2 is_stmt 1 view .LVU107
 170:Core/Src/os.c **** 	switch(idx)
 472              		.loc 1 170 2 view .LVU108
 473 002e 032C     		cmp	r4, #3
 474 0030 18D0     		beq	.L45
 475 0032 0DD8     		bhi	.L46
 476 0034 012C     		cmp	r4, #1
 477 0036 11D0     		beq	.L47
 478 0038 022C     		cmp	r4, #2
 479 003a 12D1     		bne	.L38
 177:Core/Src/os.c **** 			Os_Var.Os_Period.Os_5ms_Period = Os_TimeDiffLoc;
 480              		.loc 1 177 4 view .LVU109
 177:Core/Src/os.c **** 			Os_Var.Os_Period.Os_5ms_Period = Os_TimeDiffLoc;
 481              		.loc 1 177 35 is_stmt 0 view .LVU110
 482 003c 0B4A     		ldr	r2, .L53
 483 003e 9365     		str	r3, [r2, #88]
 178:Core/Src/os.c **** 			Os_Var.Os_Tick_Period.Os_5ms_Tick_Period = OS_TimeOldLoc;
 484              		.loc 1 178 4 is_stmt 1 view .LVU111
 178:Core/Src/os.c **** 			Os_Var.Os_Tick_Period.Os_5ms_Tick_Period = OS_TimeOldLoc;
 485              		.loc 1 178 45 is_stmt 0 view .LVU112
 486 0040 9063     		str	r0, [r2, #56]
 179:Core/Src/os.c **** 		break;
 487              		.loc 1 179 3 is_stmt 1 view .LVU113
 488 0042 0EE0     		b	.L38
 489              	.LVL27:
 490              	.L41:
 154:Core/Src/os.c **** 			OS_TimeOldLoc = Os_Var.Os_Tick_Period.Os_1ms_Tick_Period;
 491              		.loc 1 154 4 view .LVU114
 154:Core/Src/os.c **** 			OS_TimeOldLoc = Os_Var.Os_Tick_Period.Os_1ms_Tick_Period;
 492              		.loc 1 154 18 is_stmt 0 view .LVU115
 493 0044 094B     		ldr	r3, .L53
 494 0046 5B6B     		ldr	r3, [r3, #52]
ARM GAS  C:\Users\jisu8\AppData\Local\Temp\cc3d9zuK.s 			page 15


 495              	.LVL28:
 155:Core/Src/os.c **** 		break;
 496              		.loc 1 155 3 is_stmt 1 view .LVU116
 497 0048 F0E7     		b	.L43
 498              	.LVL29:
 499              	.L39:
 160:Core/Src/os.c **** 			OS_TimeOldLoc = Os_Var.Os_Tick_Period.Os_10ms_Tick_Period;
 500              		.loc 1 160 4 view .LVU117
 160:Core/Src/os.c **** 			OS_TimeOldLoc = Os_Var.Os_Tick_Period.Os_10ms_Tick_Period;
 501              		.loc 1 160 18 is_stmt 0 view .LVU118
 502 004a 084B     		ldr	r3, .L53
 503 004c DB6B     		ldr	r3, [r3, #60]
 504              	.LVL30:
 161:Core/Src/os.c **** 		break;
 505              		.loc 1 161 3 is_stmt 1 view .LVU119
 506 004e EDE7     		b	.L43
 507              	.LVL31:
 508              	.L46:
 170:Core/Src/os.c **** 	switch(idx)
 509              		.loc 1 170 2 is_stmt 0 view .LVU120
 510 0050 042C     		cmp	r4, #4
 511 0052 06D1     		bne	.L38
 185:Core/Src/os.c **** 			Os_Var.Os_Period.Os_100ms_Period = Os_TimeDiffLoc;
 512              		.loc 1 185 4 is_stmt 1 view .LVU121
 185:Core/Src/os.c **** 			Os_Var.Os_Period.Os_100ms_Period = Os_TimeDiffLoc;
 513              		.loc 1 185 37 is_stmt 0 view .LVU122
 514 0054 054A     		ldr	r2, .L53
 515 0056 1366     		str	r3, [r2, #96]
 186:Core/Src/os.c **** 			Os_Var.Os_Tick_Period.Os_100ms_Tick_Period = OS_TimeOldLoc;
 516              		.loc 1 186 4 is_stmt 1 view .LVU123
 186:Core/Src/os.c **** 			Os_Var.Os_Tick_Period.Os_100ms_Tick_Period = OS_TimeOldLoc;
 517              		.loc 1 186 47 is_stmt 0 view .LVU124
 518 0058 1064     		str	r0, [r2, #64]
 187:Core/Src/os.c **** 		break;
 519              		.loc 1 187 3 is_stmt 1 view .LVU125
 190:Core/Src/os.c **** 	return;
 520              		.loc 1 190 2 view .LVU126
 521 005a 02E0     		b	.L38
 522              	.L47:
 173:Core/Src/os.c **** 			Os_Var.Os_Period.Os_1ms_Period = Os_TimeDiffLoc;
 523              		.loc 1 173 4 view .LVU127
 173:Core/Src/os.c **** 			Os_Var.Os_Period.Os_1ms_Period = Os_TimeDiffLoc;
 524              		.loc 1 173 35 is_stmt 0 view .LVU128
 525 005c 034A     		ldr	r2, .L53
 526 005e 5365     		str	r3, [r2, #84]
 174:Core/Src/os.c **** 			Os_Var.Os_Tick_Period.Os_1ms_Tick_Period = OS_TimeOldLoc;
 527              		.loc 1 174 4 is_stmt 1 view .LVU129
 174:Core/Src/os.c **** 			Os_Var.Os_Tick_Period.Os_1ms_Tick_Period = OS_TimeOldLoc;
 528              		.loc 1 174 45 is_stmt 0 view .LVU130
 529 0060 5063     		str	r0, [r2, #52]
 175:Core/Src/os.c **** 		break;
 530              		.loc 1 175 3 is_stmt 1 view .LVU131
 531              	.L38:
 191:Core/Src/os.c **** }
 532              		.loc 1 191 1 is_stmt 0 view .LVU132
 533              		@ sp needed
 534 0062 10BD     		pop	{r4, pc}
ARM GAS  C:\Users\jisu8\AppData\Local\Temp\cc3d9zuK.s 			page 16


 535              	.L45:
 181:Core/Src/os.c **** 			Os_Var.Os_Period.Os_10ms_Period = Os_TimeDiffLoc;
 536              		.loc 1 181 4 is_stmt 1 view .LVU133
 181:Core/Src/os.c **** 			Os_Var.Os_Period.Os_10ms_Period = Os_TimeDiffLoc;
 537              		.loc 1 181 36 is_stmt 0 view .LVU134
 538 0064 014A     		ldr	r2, .L53
 539 0066 D365     		str	r3, [r2, #92]
 182:Core/Src/os.c **** 			Os_Var.Os_Tick_Period.Os_10ms_Tick_Period = OS_TimeOldLoc;
 540              		.loc 1 182 4 is_stmt 1 view .LVU135
 182:Core/Src/os.c **** 			Os_Var.Os_Tick_Period.Os_10ms_Tick_Period = OS_TimeOldLoc;
 541              		.loc 1 182 46 is_stmt 0 view .LVU136
 542 0068 D063     		str	r0, [r2, #60]
 183:Core/Src/os.c **** 		break;
 543              		.loc 1 183 3 is_stmt 1 view .LVU137
 544 006a FAE7     		b	.L38
 545              	.L54:
 546              		.align	2
 547              	.L53:
 548 006c 00000000 		.word	Os_Var
 549              		.cfi_endproc
 550              	.LFE52:
 552              		.section	.text.Os_Handler,"ax",%progbits
 553              		.align	1
 554              		.global	Os_Handler
 555              		.syntax unified
 556              		.code	16
 557              		.thumb_func
 559              	Os_Handler:
 560              	.LFB47:
  51:Core/Src/os.c **** {
 561              		.loc 1 51 1 view -0
 562              		.cfi_startproc
 563              		@ args = 0, pretend = 0, frame = 0
 564              		@ frame_needed = 0, uses_anonymous_args = 0
 565 0000 10B5     		push	{r4, lr}
 566              	.LCFI4:
 567              		.cfi_def_cfa_offset 8
 568              		.cfi_offset 4, -8
 569              		.cfi_offset 14, -4
  52:Core/Src/os.c **** 	void(*fp)(void);
 570              		.loc 1 52 2 view .LVU139
  53:Core/Src/os.c ****     if(Os_Var.Os_Task_Flag.Os_100ms_Flag == 1)
 571              		.loc 1 53 5 view .LVU140
  53:Core/Src/os.c ****     if(Os_Var.Os_Task_Flag.Os_100ms_Flag == 1)
 572              		.loc 1 53 27 is_stmt 0 view .LVU141
 573 0002 0F4A     		ldr	r2, .L59
 574 0004 6F23     		movs	r3, #111
 575 0006 D35C     		ldrb	r3, [r2, r3]
  53:Core/Src/os.c ****     if(Os_Var.Os_Task_Flag.Os_100ms_Flag == 1)
 576              		.loc 1 53 7 view .LVU142
 577 0008 012B     		cmp	r3, #1
 578 000a 09D0     		beq	.L58
  65:Core/Src/os.c **** 		Os_Calc_Runtime_Start(OS_TASK_INDEX_BG);
 579              		.loc 1 65 3 is_stmt 1 view .LVU143
 580 000c 0520     		movs	r0, #5
 581 000e FFF7FEFF 		bl	Os_Calc_Runtime_Start
 582              	.LVL32:
ARM GAS  C:\Users\jisu8\AppData\Local\Temp\cc3d9zuK.s 			page 17


  66:Core/Src/os.c **** 		(void)Os_Background_Task();
 583              		.loc 1 66 3 view .LVU144
  67:Core/Src/os.c **** 		Os_Calc_Runtime_Stop(OS_TASK_INDEX_BG);
 584              		.loc 1 67 3 view .LVU145
 585 0012 0520     		movs	r0, #5
 586 0014 FFF7FEFF 		bl	Os_Calc_Runtime_Stop
 587              	.LVL33:
  68:Core/Src/os.c **** 		Os_Calc_Period(OS_TASK_INDEX_BG);
 588              		.loc 1 68 3 view .LVU146
 589 0018 0520     		movs	r0, #5
 590 001a FFF7FEFF 		bl	Os_Calc_Period
 591              	.LVL34:
  71:Core/Src/os.c ****     return;
 592              		.loc 1 71 5 view .LVU147
 593              	.L55:
  72:Core/Src/os.c **** }
 594              		.loc 1 72 1 is_stmt 0 view .LVU148
 595              		@ sp needed
 596 001e 10BD     		pop	{r4, pc}
 597              	.L58:
  55:Core/Src/os.c **** 		fp = Os_100ms_Task;
 598              		.loc 1 55 3 is_stmt 1 view .LVU149
  56:Core/Src/os.c **** 		Os_Var.Os_Task_Add.Os_100ms_Address = fp;
 599              		.loc 1 56 3 view .LVU150
  56:Core/Src/os.c **** 		Os_Var.Os_Task_Add.Os_100ms_Address = fp;
 600              		.loc 1 56 39 is_stmt 0 view .LVU151
 601 0020 1300     		movs	r3, r2
 602 0022 084A     		ldr	r2, .L59+4
 603 0024 DA67     		str	r2, [r3, #124]
  57:Core/Src/os.c **** 		Os_Var.Os_Task_Flag.Os_100ms_Flag = 0;
 604              		.loc 1 57 3 is_stmt 1 view .LVU152
  57:Core/Src/os.c **** 		Os_Var.Os_Task_Flag.Os_100ms_Flag = 0;
 605              		.loc 1 57 37 is_stmt 0 view .LVU153
 606 0026 6F22     		movs	r2, #111
 607 0028 0021     		movs	r1, #0
 608 002a 9954     		strb	r1, [r3, r2]
  58:Core/Src/os.c **** 		Os_Calc_Runtime_Start(OS_TASK_INDEX_100MS);
 609              		.loc 1 58 3 is_stmt 1 view .LVU154
 610 002c 0420     		movs	r0, #4
 611 002e FFF7FEFF 		bl	Os_Calc_Runtime_Start
 612              	.LVL35:
  59:Core/Src/os.c **** 		(void)Os_100ms_Task();
 613              		.loc 1 59 3 view .LVU155
  60:Core/Src/os.c **** 		Os_Calc_Runtime_Stop(OS_TASK_INDEX_100MS);
 614              		.loc 1 60 3 view .LVU156
 615 0032 0420     		movs	r0, #4
 616 0034 FFF7FEFF 		bl	Os_Calc_Runtime_Stop
 617              	.LVL36:
  61:Core/Src/os.c **** 		Os_Calc_Period(OS_TASK_INDEX_100MS);
 618              		.loc 1 61 3 view .LVU157
 619 0038 0420     		movs	r0, #4
 620 003a FFF7FEFF 		bl	Os_Calc_Period
 621              	.LVL37:
 622 003e EEE7     		b	.L55
 623              	.L60:
 624              		.align	2
 625              	.L59:
ARM GAS  C:\Users\jisu8\AppData\Local\Temp\cc3d9zuK.s 			page 18


 626 0040 00000000 		.word	Os_Var
 627 0044 00000000 		.word	Os_100ms_Task
 628              		.cfi_endproc
 629              	.LFE47:
 631              		.global	__aeabi_uidivmod
 632              		.section	.text.Os_Handler_1ms,"ax",%progbits
 633              		.align	1
 634              		.global	Os_Handler_1ms
 635              		.syntax unified
 636              		.code	16
 637              		.thumb_func
 639              	Os_Handler_1ms:
 640              	.LFB48:
  75:Core/Src/os.c **** {
 641              		.loc 1 75 1 view -0
 642              		.cfi_startproc
 643              		@ args = 0, pretend = 0, frame = 0
 644              		@ frame_needed = 0, uses_anonymous_args = 0
 645 0000 10B5     		push	{r4, lr}
 646              	.LCFI5:
 647              		.cfi_def_cfa_offset 8
 648              		.cfi_offset 4, -8
 649              		.cfi_offset 14, -4
  76:Core/Src/os.c **** 	if(Os_Var.Os_Counter.Os_1ms_Counter % 1 == 0)
 650              		.loc 1 76 2 view .LVU159
  78:Core/Src/os.c **** 		Os_Var.Os_Counter.Os_1ms_Counter++;
 651              		.loc 1 78 3 view .LVU160
  78:Core/Src/os.c **** 		Os_Var.Os_Counter.Os_1ms_Counter++;
 652              		.loc 1 78 20 is_stmt 0 view .LVU161
 653 0002 124B     		ldr	r3, .L63
  78:Core/Src/os.c **** 		Os_Var.Os_Counter.Os_1ms_Counter++;
 654              		.loc 1 78 35 view .LVU162
 655 0004 5A68     		ldr	r2, [r3, #4]
 656 0006 501C     		adds	r0, r2, #1
 657 0008 5860     		str	r0, [r3, #4]
  79:Core/Src/os.c **** 		Os_Var.Os_Task_Flag.Os_1ms_Flag = 1;
 658              		.loc 1 79 3 is_stmt 1 view .LVU163
  79:Core/Src/os.c **** 		Os_Var.Os_Task_Flag.Os_1ms_Flag = 1;
 659              		.loc 1 79 35 is_stmt 0 view .LVU164
 660 000a 6C22     		movs	r2, #108
 661 000c 0121     		movs	r1, #1
 662 000e 9954     		strb	r1, [r3, r2]
  82:Core/Src/os.c **** 	if(Os_Var.Os_Counter.Os_1ms_Counter % 100 == 0)
 663              		.loc 1 82 2 is_stmt 1 view .LVU165
  82:Core/Src/os.c **** 	if(Os_Var.Os_Counter.Os_1ms_Counter % 100 == 0)
 664              		.loc 1 82 38 is_stmt 0 view .LVU166
 665 0010 6331     		adds	r1, r1, #99
 666 0012 FFF7FEFF 		bl	__aeabi_uidivmod
 667              	.LVL38:
  82:Core/Src/os.c **** 	if(Os_Var.Os_Counter.Os_1ms_Counter % 100 == 0)
 668              		.loc 1 82 4 view .LVU167
 669 0016 0029     		cmp	r1, #0
 670 0018 06D1     		bne	.L62
  84:Core/Src/os.c **** 		Os_Var.Os_Counter.Os_100ms_Counter++;
 671              		.loc 1 84 3 is_stmt 1 view .LVU168
  84:Core/Src/os.c **** 		Os_Var.Os_Counter.Os_100ms_Counter++;
 672              		.loc 1 84 20 is_stmt 0 view .LVU169
ARM GAS  C:\Users\jisu8\AppData\Local\Temp\cc3d9zuK.s 			page 19


 673 001a 0C4B     		ldr	r3, .L63
  84:Core/Src/os.c **** 		Os_Var.Os_Counter.Os_100ms_Counter++;
 674              		.loc 1 84 37 view .LVU170
 675 001c 1A69     		ldr	r2, [r3, #16]
 676 001e 0132     		adds	r2, r2, #1
 677 0020 1A61     		str	r2, [r3, #16]
  85:Core/Src/os.c **** 		Os_Var.Os_Task_Flag.Os_100ms_Flag = 1;
 678              		.loc 1 85 3 is_stmt 1 view .LVU171
  85:Core/Src/os.c **** 		Os_Var.Os_Task_Flag.Os_100ms_Flag = 1;
 679              		.loc 1 85 37 is_stmt 0 view .LVU172
 680 0022 6F22     		movs	r2, #111
 681 0024 0131     		adds	r1, r1, #1
 682 0026 9954     		strb	r1, [r3, r2]
 683              	.L62:
  87:Core/Src/os.c **** 	void(*fp)(void);
 684              		.loc 1 87 2 is_stmt 1 view .LVU173
  88:Core/Src/os.c **** 	if(Os_Var.Os_Task_Flag.Os_1ms_Flag == 1)
 685              		.loc 1 88 2 view .LVU174
  90:Core/Src/os.c **** 		fp = Os_1ms_Task;
 686              		.loc 1 90 3 view .LVU175
  91:Core/Src/os.c **** 		Os_Var.Os_Task_Add.Os_1ms_Address = fp;
 687              		.loc 1 91 3 view .LVU176
  91:Core/Src/os.c **** 		Os_Var.Os_Task_Add.Os_1ms_Address = fp;
 688              		.loc 1 91 37 is_stmt 0 view .LVU177
 689 0028 084B     		ldr	r3, .L63
 690 002a 094A     		ldr	r2, .L63+4
 691 002c 1A67     		str	r2, [r3, #112]
  92:Core/Src/os.c **** 		Os_Var.Os_Task_Flag.Os_1ms_Flag = 0;
 692              		.loc 1 92 3 is_stmt 1 view .LVU178
  92:Core/Src/os.c **** 		Os_Var.Os_Task_Flag.Os_1ms_Flag = 0;
 693              		.loc 1 92 35 is_stmt 0 view .LVU179
 694 002e 6C22     		movs	r2, #108
 695 0030 0021     		movs	r1, #0
 696 0032 9954     		strb	r1, [r3, r2]
  93:Core/Src/os.c **** 		Os_Calc_Runtime_Start(OS_TASK_INDEX_1MS);
 697              		.loc 1 93 3 is_stmt 1 view .LVU180
 698 0034 0120     		movs	r0, #1
 699 0036 FFF7FEFF 		bl	Os_Calc_Runtime_Start
 700              	.LVL39:
  94:Core/Src/os.c **** 		(void)Os_1ms_Task();
 701              		.loc 1 94 3 view .LVU181
 702 003a FFF7FEFF 		bl	Os_1ms_Task
 703              	.LVL40:
  95:Core/Src/os.c **** 		Os_Calc_Runtime_Stop(OS_TASK_INDEX_1MS);
 704              		.loc 1 95 3 view .LVU182
 705 003e 0120     		movs	r0, #1
 706 0040 FFF7FEFF 		bl	Os_Calc_Runtime_Stop
 707              	.LVL41:
  96:Core/Src/os.c **** 		Os_Calc_Period(OS_TASK_INDEX_1MS);
 708              		.loc 1 96 3 view .LVU183
 709 0044 0120     		movs	r0, #1
 710 0046 FFF7FEFF 		bl	Os_Calc_Period
 711              	.LVL42:
  98:Core/Src/os.c **** }
 712              		.loc 1 98 1 is_stmt 0 view .LVU184
 713              		@ sp needed
 714 004a 10BD     		pop	{r4, pc}
ARM GAS  C:\Users\jisu8\AppData\Local\Temp\cc3d9zuK.s 			page 20


 715              	.L64:
 716              		.align	2
 717              	.L63:
 718 004c 00000000 		.word	Os_Var
 719 0050 00000000 		.word	Os_1ms_Task
 720              		.cfi_endproc
 721              	.LFE48:
 723              		.section	.text.Os_Handler_5ms,"ax",%progbits
 724              		.align	1
 725              		.global	Os_Handler_5ms
 726              		.syntax unified
 727              		.code	16
 728              		.thumb_func
 730              	Os_Handler_5ms:
 731              	.LFB49:
 101:Core/Src/os.c **** {
 732              		.loc 1 101 1 is_stmt 1 view -0
 733              		.cfi_startproc
 734              		@ args = 0, pretend = 0, frame = 0
 735              		@ frame_needed = 0, uses_anonymous_args = 0
 736 0000 10B5     		push	{r4, lr}
 737              	.LCFI6:
 738              		.cfi_def_cfa_offset 8
 739              		.cfi_offset 4, -8
 740              		.cfi_offset 14, -4
 102:Core/Src/os.c **** 	if(Os_Var.Os_Counter.Os_5ms_Counter % 1 == 0)
 741              		.loc 1 102 2 view .LVU186
 104:Core/Src/os.c **** 		Os_Var.Os_Counter.Os_5ms_Counter++;
 742              		.loc 1 104 3 view .LVU187
 104:Core/Src/os.c **** 		Os_Var.Os_Counter.Os_5ms_Counter++;
 743              		.loc 1 104 20 is_stmt 0 view .LVU188
 744 0002 0A4B     		ldr	r3, .L66
 104:Core/Src/os.c **** 		Os_Var.Os_Counter.Os_5ms_Counter++;
 745              		.loc 1 104 35 view .LVU189
 746 0004 9A68     		ldr	r2, [r3, #8]
 747 0006 0132     		adds	r2, r2, #1
 748 0008 9A60     		str	r2, [r3, #8]
 105:Core/Src/os.c **** 		Os_Var.Os_Task_Flag.Os_5ms_Flag = 1;
 749              		.loc 1 105 3 is_stmt 1 view .LVU190
 105:Core/Src/os.c **** 		Os_Var.Os_Task_Flag.Os_5ms_Flag = 1;
 750              		.loc 1 105 35 is_stmt 0 view .LVU191
 751 000a 6D22     		movs	r2, #109
 752 000c 0121     		movs	r1, #1
 753 000e 9954     		strb	r1, [r3, r2]
 108:Core/Src/os.c **** 	void(*fp)(void);
 754              		.loc 1 108 2 is_stmt 1 view .LVU192
 109:Core/Src/os.c **** 	if(Os_Var.Os_Task_Flag.Os_5ms_Flag == 1)
 755              		.loc 1 109 2 view .LVU193
 111:Core/Src/os.c **** 		fp = Os_5ms_Task;
 756              		.loc 1 111 3 view .LVU194
 112:Core/Src/os.c **** 		Os_Var.Os_Task_Add.Os_5ms_Address = fp;
 757              		.loc 1 112 3 view .LVU195
 112:Core/Src/os.c **** 		Os_Var.Os_Task_Add.Os_5ms_Address = fp;
 758              		.loc 1 112 37 is_stmt 0 view .LVU196
 759 0010 0749     		ldr	r1, .L66+4
 760 0012 5967     		str	r1, [r3, #116]
 113:Core/Src/os.c **** 		Os_Var.Os_Task_Flag.Os_5ms_Flag = 0;
ARM GAS  C:\Users\jisu8\AppData\Local\Temp\cc3d9zuK.s 			page 21


 761              		.loc 1 113 3 is_stmt 1 view .LVU197
 113:Core/Src/os.c **** 		Os_Var.Os_Task_Flag.Os_5ms_Flag = 0;
 762              		.loc 1 113 35 is_stmt 0 view .LVU198
 763 0014 0021     		movs	r1, #0
 764 0016 9954     		strb	r1, [r3, r2]
 114:Core/Src/os.c **** 		Os_Calc_Runtime_Start(OS_TASK_INDEX_5MS);
 765              		.loc 1 114 3 is_stmt 1 view .LVU199
 766 0018 0220     		movs	r0, #2
 767 001a FFF7FEFF 		bl	Os_Calc_Runtime_Start
 768              	.LVL43:
 115:Core/Src/os.c **** 		(void)Os_5ms_Task();
 769              		.loc 1 115 3 view .LVU200
 116:Core/Src/os.c **** 		Os_Calc_Runtime_Stop(OS_TASK_INDEX_5MS);
 770              		.loc 1 116 3 view .LVU201
 771 001e 0220     		movs	r0, #2
 772 0020 FFF7FEFF 		bl	Os_Calc_Runtime_Stop
 773              	.LVL44:
 117:Core/Src/os.c **** 		Os_Calc_Period(OS_TASK_INDEX_5MS);
 774              		.loc 1 117 3 view .LVU202
 775 0024 0220     		movs	r0, #2
 776 0026 FFF7FEFF 		bl	Os_Calc_Period
 777              	.LVL45:
 119:Core/Src/os.c **** }
 778              		.loc 1 119 1 is_stmt 0 view .LVU203
 779              		@ sp needed
 780 002a 10BD     		pop	{r4, pc}
 781              	.L67:
 782              		.align	2
 783              	.L66:
 784 002c 00000000 		.word	Os_Var
 785 0030 00000000 		.word	Os_5ms_Task
 786              		.cfi_endproc
 787              	.LFE49:
 789              		.section	.text.Os_Handler_10ms,"ax",%progbits
 790              		.align	1
 791              		.global	Os_Handler_10ms
 792              		.syntax unified
 793              		.code	16
 794              		.thumb_func
 796              	Os_Handler_10ms:
 797              	.LFB50:
 122:Core/Src/os.c **** {
 798              		.loc 1 122 1 is_stmt 1 view -0
 799              		.cfi_startproc
 800              		@ args = 0, pretend = 0, frame = 0
 801              		@ frame_needed = 0, uses_anonymous_args = 0
 802 0000 10B5     		push	{r4, lr}
 803              	.LCFI7:
 804              		.cfi_def_cfa_offset 8
 805              		.cfi_offset 4, -8
 806              		.cfi_offset 14, -4
 123:Core/Src/os.c **** 	Os_Var.Os_Counter.Os_10ms_Counter++;
 807              		.loc 1 123 2 view .LVU205
 123:Core/Src/os.c **** 	Os_Var.Os_Counter.Os_10ms_Counter++;
 808              		.loc 1 123 19 is_stmt 0 view .LVU206
 809 0002 0A4B     		ldr	r3, .L69
 123:Core/Src/os.c **** 	Os_Var.Os_Counter.Os_10ms_Counter++;
ARM GAS  C:\Users\jisu8\AppData\Local\Temp\cc3d9zuK.s 			page 22


 810              		.loc 1 123 35 view .LVU207
 811 0004 DA68     		ldr	r2, [r3, #12]
 812 0006 0132     		adds	r2, r2, #1
 813 0008 DA60     		str	r2, [r3, #12]
 124:Core/Src/os.c **** 	Os_Var.Os_Task_Flag.Os_10ms_Flag = 1;
 814              		.loc 1 124 2 is_stmt 1 view .LVU208
 124:Core/Src/os.c **** 	Os_Var.Os_Task_Flag.Os_10ms_Flag = 1;
 815              		.loc 1 124 35 is_stmt 0 view .LVU209
 816 000a 6E22     		movs	r2, #110
 817 000c 0121     		movs	r1, #1
 818 000e 9954     		strb	r1, [r3, r2]
 125:Core/Src/os.c **** 	void(*fp)(void);
 819              		.loc 1 125 2 is_stmt 1 view .LVU210
 126:Core/Src/os.c **** 	if(Os_Var.Os_Task_Flag.Os_10ms_Flag == 1)
 820              		.loc 1 126 2 view .LVU211
 128:Core/Src/os.c **** 		fp = Os_10ms_Task;
 821              		.loc 1 128 3 view .LVU212
 129:Core/Src/os.c **** 		Os_Var.Os_Task_Add.Os_10ms_Address = fp;
 822              		.loc 1 129 3 view .LVU213
 129:Core/Src/os.c **** 		Os_Var.Os_Task_Add.Os_10ms_Address = fp;
 823              		.loc 1 129 38 is_stmt 0 view .LVU214
 824 0010 0749     		ldr	r1, .L69+4
 825 0012 9967     		str	r1, [r3, #120]
 130:Core/Src/os.c **** 		Os_Var.Os_Task_Flag.Os_10ms_Flag = 0;
 826              		.loc 1 130 3 is_stmt 1 view .LVU215
 130:Core/Src/os.c **** 		Os_Var.Os_Task_Flag.Os_10ms_Flag = 0;
 827              		.loc 1 130 36 is_stmt 0 view .LVU216
 828 0014 0021     		movs	r1, #0
 829 0016 9954     		strb	r1, [r3, r2]
 131:Core/Src/os.c **** 		Os_Calc_Runtime_Start(OS_TASK_INDEX_10MS);
 830              		.loc 1 131 3 is_stmt 1 view .LVU217
 831 0018 0320     		movs	r0, #3
 832 001a FFF7FEFF 		bl	Os_Calc_Runtime_Start
 833              	.LVL46:
 132:Core/Src/os.c **** 		(void)Os_10ms_Task();
 834              		.loc 1 132 3 view .LVU218
 133:Core/Src/os.c **** 		Os_Calc_Runtime_Stop(OS_TASK_INDEX_10MS);
 835              		.loc 1 133 3 view .LVU219
 836 001e 0320     		movs	r0, #3
 837 0020 FFF7FEFF 		bl	Os_Calc_Runtime_Stop
 838              	.LVL47:
 134:Core/Src/os.c **** 		Os_Calc_Period(OS_TASK_INDEX_10MS);
 839              		.loc 1 134 3 view .LVU220
 840 0024 0320     		movs	r0, #3
 841 0026 FFF7FEFF 		bl	Os_Calc_Period
 842              	.LVL48:
 136:Core/Src/os.c **** }
 843              		.loc 1 136 1 is_stmt 0 view .LVU221
 844              		@ sp needed
 845 002a 10BD     		pop	{r4, pc}
 846              	.L70:
 847              		.align	2
 848              	.L69:
 849 002c 00000000 		.word	Os_Var
 850 0030 00000000 		.word	Os_10ms_Task
 851              		.cfi_endproc
 852              	.LFE50:
ARM GAS  C:\Users\jisu8\AppData\Local\Temp\cc3d9zuK.s 			page 23


 854              		.global	Os_Var
 855              		.section	.bss.Os_Var,"aw",%nobits
 856              		.align	2
 859              	Os_Var:
 860 0000 00000000 		.space	128
 860      00000000 
 860      00000000 
 860      00000000 
 860      00000000 
 861              		.text
 862              	.Letext0:
 863              		.file 2 "Core/Inc/vardef.h"
 864              		.file 3 "Core/Inc/os.h"
 865              		.file 4 "Core/Inc/as5048.h"
ARM GAS  C:\Users\jisu8\AppData\Local\Temp\cc3d9zuK.s 			page 24

