ARM GAS  C:\Users\jisu8\AppData\Local\Temp\ccXJRLjp.s 			page 1


   1              		.cpu cortex-m0
   2              		.arch armv6s-m
   3              		.fpu softvfp
   4              		.eabi_attribute 20, 1
   5              		.eabi_attribute 21, 1
   6              		.eabi_attribute 23, 3
   7              		.eabi_attribute 24, 1
   8              		.eabi_attribute 25, 1
   9              		.eabi_attribute 26, 1
  10              		.eabi_attribute 30, 1
  11              		.eabi_attribute 34, 0
  12              		.eabi_attribute 18, 4
  13              		.file	"startup_stm32f031x6.c"
  14              		.text
  15              	.Ltext0:
  16              		.cfi_sections	.debug_frame
  17              		.section	.text.Reset_Handler,"ax",%progbits
  18              		.align	1
  19              		.global	Reset_Handler
  20              		.syntax unified
  21              		.code	16
  22              		.thumb_func
  24              	Reset_Handler:
  25              	.LFB40:
  26              		.file 1 "startup_stm32f031x6.c"
   1:startup_stm32f031x6.c **** #include "stdint.h"
   2:startup_stm32f031x6.c **** #include "system_stm32f0xx.h"
   3:startup_stm32f031x6.c **** #include "stm32f0xx.h"
   4:startup_stm32f031x6.c **** #include "stm32f0xx_hal_def.h"
   5:startup_stm32f031x6.c **** #include "main.h"
   6:startup_stm32f031x6.c **** 
   7:startup_stm32f031x6.c **** extern uint32_t _sidata;
   8:startup_stm32f031x6.c **** extern uint32_t _sdata;
   9:startup_stm32f031x6.c **** extern uint32_t _edata;
  10:startup_stm32f031x6.c **** extern uint32_t _sbss;
  11:startup_stm32f031x6.c **** extern uint32_t _ebss;
  12:startup_stm32f031x6.c **** extern uint32_t _estack;
  13:startup_stm32f031x6.c **** 
  14:startup_stm32f031x6.c **** extern void __libc_init_array();
  15:startup_stm32f031x6.c **** 
  16:startup_stm32f031x6.c **** void Reset_Handler()
  17:startup_stm32f031x6.c **** {
  27              		.loc 1 17 1 view -0
  28              		.cfi_startproc
  29              		@ args = 0, pretend = 0, frame = 0
  30              		@ frame_needed = 0, uses_anonymous_args = 0
  31 0000 10B5     		push	{r4, lr}
  32              	.LCFI0:
  33              		.cfi_def_cfa_offset 8
  34              		.cfi_offset 4, -8
  35              		.cfi_offset 14, -4
  18:startup_stm32f031x6.c ****     uint32_t *dataInit = &_sidata;
  36              		.loc 1 18 5 view .LVU1
  37              	.LVL0:
  19:startup_stm32f031x6.c ****     uint32_t *data = &_sdata;
  38              		.loc 1 19 5 view .LVU2
  20:startup_stm32f031x6.c ****     while(data < &_edata)
ARM GAS  C:\Users\jisu8\AppData\Local\Temp\ccXJRLjp.s 			page 2


  39              		.loc 1 20 5 view .LVU3
  19:startup_stm32f031x6.c ****     uint32_t *data = &_sdata;
  40              		.loc 1 19 15 is_stmt 0 view .LVU4
  41 0002 0B4B     		ldr	r3, .L7
  18:startup_stm32f031x6.c ****     uint32_t *dataInit = &_sidata;
  42              		.loc 1 18 15 view .LVU5
  43 0004 0B4A     		ldr	r2, .L7+4
  44              		.loc 1 20 10 view .LVU6
  45 0006 01E0     		b	.L2
  46              	.LVL1:
  47              	.L3:
  21:startup_stm32f031x6.c ****     {
  22:startup_stm32f031x6.c ****         *data++ = *dataInit++;
  48              		.loc 1 22 9 is_stmt 1 view .LVU7
  49              		.loc 1 22 19 is_stmt 0 view .LVU8
  50 0008 02CA     		ldmia	r2!, {r1}
  51              	.LVL2:
  52              		.loc 1 22 17 view .LVU9
  53 000a 02C3     		stmia	r3!, {r1}
  54              	.LVL3:
  55              	.L2:
  20:startup_stm32f031x6.c ****     while(data < &_edata)
  56              		.loc 1 20 10 is_stmt 1 view .LVU10
  57 000c 0A49     		ldr	r1, .L7+8
  58 000e 8B42     		cmp	r3, r1
  59 0010 FAD3     		bcc	.L3
  23:startup_stm32f031x6.c ****     }
  24:startup_stm32f031x6.c **** 
  25:startup_stm32f031x6.c ****     uint32_t *bss = &_sbss;
  60              		.loc 1 25 15 is_stmt 0 view .LVU11
  61 0012 0A4B     		ldr	r3, .L7+12
  62              	.LVL4:
  63              		.loc 1 25 15 view .LVU12
  64 0014 01E0     		b	.L4
  65              	.LVL5:
  66              	.L5:
  26:startup_stm32f031x6.c ****     while(bss < &_ebss)
  27:startup_stm32f031x6.c ****     {
  28:startup_stm32f031x6.c ****         *bss++ = 0;
  67              		.loc 1 28 9 is_stmt 1 view .LVU13
  68              		.loc 1 28 16 is_stmt 0 view .LVU14
  69 0016 0022     		movs	r2, #0
  70 0018 04C3     		stmia	r3!, {r2}
  71              	.LVL6:
  72              	.L4:
  26:startup_stm32f031x6.c ****     while(bss < &_ebss)
  73              		.loc 1 26 10 is_stmt 1 view .LVU15
  74 001a 094A     		ldr	r2, .L7+16
  75 001c 9342     		cmp	r3, r2
  76 001e FAD3     		bcc	.L5
  29:startup_stm32f031x6.c ****     }
  30:startup_stm32f031x6.c **** 
  31:startup_stm32f031x6.c ****     SystemInit(); 
  77              		.loc 1 31 5 view .LVU16
  78 0020 FFF7FEFF 		bl	SystemInit
  79              	.LVL7:
  32:startup_stm32f031x6.c ****     __libc_init_array();
ARM GAS  C:\Users\jisu8\AppData\Local\Temp\ccXJRLjp.s 			page 3


  80              		.loc 1 32 5 view .LVU17
  81 0024 FFF7FEFF 		bl	__libc_init_array
  82              	.LVL8:
  33:startup_stm32f031x6.c ****     main();
  83              		.loc 1 33 5 view .LVU18
  84 0028 FFF7FEFF 		bl	main
  85              	.LVL9:
  86              	.L6:
  34:startup_stm32f031x6.c **** 
  35:startup_stm32f031x6.c ****     while (1);
  87              		.loc 1 35 5 discriminator 1 view .LVU19
  88              		.loc 1 35 14 discriminator 1 view .LVU20
  89              		.loc 1 35 11 discriminator 1 view .LVU21
  90 002c FEE7     		b	.L6
  91              	.L8:
  92 002e C046     		.align	2
  93              	.L7:
  94 0030 00000000 		.word	_sdata
  95 0034 00000000 		.word	_sidata
  96 0038 00000000 		.word	_edata
  97 003c 00000000 		.word	_sbss
  98 0040 00000000 		.word	_ebss
  99              		.cfi_endproc
 100              	.LFE40:
 102              		.section	.text.Default_Handler,"ax",%progbits
 103              		.align	1
 104              		.global	Default_Handler
 105              		.syntax unified
 106              		.code	16
 107              		.thumb_func
 109              	Default_Handler:
 110              	.LFB41:
  36:startup_stm32f031x6.c **** }
  37:startup_stm32f031x6.c **** 
  38:startup_stm32f031x6.c **** void Default_Handler(void)
  39:startup_stm32f031x6.c **** {
 111              		.loc 1 39 1 view -0
 112              		.cfi_startproc
 113              		@ Volatile: function does not return.
 114              		@ args = 0, pretend = 0, frame = 0
 115              		@ frame_needed = 0, uses_anonymous_args = 0
 116              		@ link register save eliminated.
 117              	.L10:
  40:startup_stm32f031x6.c ****     while (1);
 118              		.loc 1 40 5 discriminator 1 view .LVU23
 119              		.loc 1 40 14 discriminator 1 view .LVU24
 120              		.loc 1 40 11 discriminator 1 view .LVU25
 121 0000 FEE7     		b	.L10
 122              		.cfi_endproc
 123              	.LFE41:
 125              		.section	.text.NMI_Handler,"ax",%progbits
 126              		.align	1
 127              		.weak	NMI_Handler
 128              		.syntax unified
 129              		.code	16
 130              		.thumb_func
 132              	NMI_Handler:
ARM GAS  C:\Users\jisu8\AppData\Local\Temp\ccXJRLjp.s 			page 4


 133              	.LFB46:
  41:startup_stm32f031x6.c **** }
  42:startup_stm32f031x6.c **** 
  43:startup_stm32f031x6.c **** void TIM14_Handler(void)
  44:startup_stm32f031x6.c **** {
  45:startup_stm32f031x6.c ****     HAL_TIM_IRQHandler(&htim14);
  46:startup_stm32f031x6.c **** }
  47:startup_stm32f031x6.c **** 
  48:startup_stm32f031x6.c **** void TIM16_Handler(void)
  49:startup_stm32f031x6.c **** {
  50:startup_stm32f031x6.c ****     HAL_TIM_IRQHandler(&htim16);
  51:startup_stm32f031x6.c **** }
  52:startup_stm32f031x6.c **** 
  53:startup_stm32f031x6.c **** void TIM17_Handler(void)
  54:startup_stm32f031x6.c **** {
  55:startup_stm32f031x6.c ****     HAL_TIM_IRQHandler(&htim17);
  56:startup_stm32f031x6.c **** }
  57:startup_stm32f031x6.c **** 
  58:startup_stm32f031x6.c **** void SystemTick_Handler(void)
  59:startup_stm32f031x6.c **** {
  60:startup_stm32f031x6.c ****     /* USER CODE BEGIN SysTick_IRQn 0 */
  61:startup_stm32f031x6.c **** 
  62:startup_stm32f031x6.c ****     /* USER CODE END SysTick_IRQn 0 */
  63:startup_stm32f031x6.c ****     HAL_IncTick();
  64:startup_stm32f031x6.c ****     /* USER CODE BEGIN SysTick_IRQn 1 */
  65:startup_stm32f031x6.c ****     Os_Handler_1ms();
  66:startup_stm32f031x6.c ****     /* USER CODE END SysTick_IRQn 1 */
  67:startup_stm32f031x6.c **** }
  68:startup_stm32f031x6.c **** 
  69:startup_stm32f031x6.c **** 
  70:startup_stm32f031x6.c **** __weak void NMI_Handler(void)                           {Default_Handler();}                       
 134              		.loc 1 70 57 view -0
 135              		.cfi_startproc
 136              		@ args = 0, pretend = 0, frame = 0
 137              		@ frame_needed = 0, uses_anonymous_args = 0
 138 0000 10B5     		push	{r4, lr}
 139              	.LCFI1:
 140              		.cfi_def_cfa_offset 8
 141              		.cfi_offset 4, -8
 142              		.cfi_offset 14, -4
 143              		.loc 1 70 58 view .LVU27
 144 0002 FFF7FEFF 		bl	Default_Handler
 145              	.LVL10:
 146              		.cfi_endproc
 147              	.LFE46:
 149              		.section	.text.HardFault_Handler,"ax",%progbits
 150              		.align	1
 151              		.weak	HardFault_Handler
 152              		.syntax unified
 153              		.code	16
 154              		.thumb_func
 156              	HardFault_Handler:
 157              	.LFB47:
  71:startup_stm32f031x6.c **** __weak void HardFault_Handler(void)                     {Default_Handler();} 
 158              		.loc 1 71 57 view -0
 159              		.cfi_startproc
 160              		@ args = 0, pretend = 0, frame = 0
ARM GAS  C:\Users\jisu8\AppData\Local\Temp\ccXJRLjp.s 			page 5


 161              		@ frame_needed = 0, uses_anonymous_args = 0
 162 0000 10B5     		push	{r4, lr}
 163              	.LCFI2:
 164              		.cfi_def_cfa_offset 8
 165              		.cfi_offset 4, -8
 166              		.cfi_offset 14, -4
 167              		.loc 1 71 58 view .LVU29
 168 0002 FFF7FEFF 		bl	Default_Handler
 169              	.LVL11:
 170              		.cfi_endproc
 171              	.LFE47:
 173              		.section	.text.SVC_Handler,"ax",%progbits
 174              		.align	1
 175              		.weak	SVC_Handler
 176              		.syntax unified
 177              		.code	16
 178              		.thumb_func
 180              	SVC_Handler:
 181              	.LFB48:
  72:startup_stm32f031x6.c **** __weak void SVC_Handler(void)                           {Default_Handler();} 
 182              		.loc 1 72 57 view -0
 183              		.cfi_startproc
 184              		@ args = 0, pretend = 0, frame = 0
 185              		@ frame_needed = 0, uses_anonymous_args = 0
 186 0000 10B5     		push	{r4, lr}
 187              	.LCFI3:
 188              		.cfi_def_cfa_offset 8
 189              		.cfi_offset 4, -8
 190              		.cfi_offset 14, -4
 191              		.loc 1 72 58 view .LVU31
 192 0002 FFF7FEFF 		bl	Default_Handler
 193              	.LVL12:
 194              		.cfi_endproc
 195              	.LFE48:
 197              		.section	.text.PendSV_Handler,"ax",%progbits
 198              		.align	1
 199              		.weak	PendSV_Handler
 200              		.syntax unified
 201              		.code	16
 202              		.thumb_func
 204              	PendSV_Handler:
 205              	.LFB49:
  73:startup_stm32f031x6.c **** __weak void PendSV_Handler(void)                        {Default_Handler();} 
 206              		.loc 1 73 57 view -0
 207              		.cfi_startproc
 208              		@ args = 0, pretend = 0, frame = 0
 209              		@ frame_needed = 0, uses_anonymous_args = 0
 210 0000 10B5     		push	{r4, lr}
 211              	.LCFI4:
 212              		.cfi_def_cfa_offset 8
 213              		.cfi_offset 4, -8
 214              		.cfi_offset 14, -4
 215              		.loc 1 73 58 view .LVU33
 216 0002 FFF7FEFF 		bl	Default_Handler
 217              	.LVL13:
 218              		.cfi_endproc
 219              	.LFE49:
ARM GAS  C:\Users\jisu8\AppData\Local\Temp\ccXJRLjp.s 			page 6


 221              		.section	.text.WWDG_IRQHandler,"ax",%progbits
 222              		.align	1
 223              		.weak	WWDG_IRQHandler
 224              		.syntax unified
 225              		.code	16
 226              		.thumb_func
 228              	WWDG_IRQHandler:
 229              	.LFB51:
  74:startup_stm32f031x6.c **** __weak void SysTick_Handler(void)                       {SystemTick_Handler();} 
  75:startup_stm32f031x6.c **** __weak void WWDG_IRQHandler(void)                       {Default_Handler();}                  
 230              		.loc 1 75 57 view -0
 231              		.cfi_startproc
 232              		@ args = 0, pretend = 0, frame = 0
 233              		@ frame_needed = 0, uses_anonymous_args = 0
 234 0000 10B5     		push	{r4, lr}
 235              	.LCFI5:
 236              		.cfi_def_cfa_offset 8
 237              		.cfi_offset 4, -8
 238              		.cfi_offset 14, -4
 239              		.loc 1 75 58 view .LVU35
 240 0002 FFF7FEFF 		bl	Default_Handler
 241              	.LVL14:
 242              		.cfi_endproc
 243              	.LFE51:
 245              		.section	.text.PVD_IRQHandler,"ax",%progbits
 246              		.align	1
 247              		.weak	PVD_IRQHandler
 248              		.syntax unified
 249              		.code	16
 250              		.thumb_func
 252              	PVD_IRQHandler:
 253              	.LFB52:
  76:startup_stm32f031x6.c **** __weak void PVD_IRQHandler(void)                        {Default_Handler();}                    
 254              		.loc 1 76 57 view -0
 255              		.cfi_startproc
 256              		@ args = 0, pretend = 0, frame = 0
 257              		@ frame_needed = 0, uses_anonymous_args = 0
 258 0000 10B5     		push	{r4, lr}
 259              	.LCFI6:
 260              		.cfi_def_cfa_offset 8
 261              		.cfi_offset 4, -8
 262              		.cfi_offset 14, -4
 263              		.loc 1 76 58 view .LVU37
 264 0002 FFF7FEFF 		bl	Default_Handler
 265              	.LVL15:
 266              		.cfi_endproc
 267              	.LFE52:
 269              		.section	.text.RTC_IRQHandler,"ax",%progbits
 270              		.align	1
 271              		.weak	RTC_IRQHandler
 272              		.syntax unified
 273              		.code	16
 274              		.thumb_func
 276              	RTC_IRQHandler:
 277              	.LFB53:
  77:startup_stm32f031x6.c **** __weak void RTC_IRQHandler(void)                        {Default_Handler();}                  
 278              		.loc 1 77 57 view -0
ARM GAS  C:\Users\jisu8\AppData\Local\Temp\ccXJRLjp.s 			page 7


 279              		.cfi_startproc
 280              		@ args = 0, pretend = 0, frame = 0
 281              		@ frame_needed = 0, uses_anonymous_args = 0
 282 0000 10B5     		push	{r4, lr}
 283              	.LCFI7:
 284              		.cfi_def_cfa_offset 8
 285              		.cfi_offset 4, -8
 286              		.cfi_offset 14, -4
 287              		.loc 1 77 58 view .LVU39
 288 0002 FFF7FEFF 		bl	Default_Handler
 289              	.LVL16:
 290              		.cfi_endproc
 291              	.LFE53:
 293              		.section	.text.FLASH_IRQHandler,"ax",%progbits
 294              		.align	1
 295              		.weak	FLASH_IRQHandler
 296              		.syntax unified
 297              		.code	16
 298              		.thumb_func
 300              	FLASH_IRQHandler:
 301              	.LFB54:
  78:startup_stm32f031x6.c **** __weak void FLASH_IRQHandler(void)                      {Default_Handler();}                   
 302              		.loc 1 78 57 view -0
 303              		.cfi_startproc
 304              		@ args = 0, pretend = 0, frame = 0
 305              		@ frame_needed = 0, uses_anonymous_args = 0
 306 0000 10B5     		push	{r4, lr}
 307              	.LCFI8:
 308              		.cfi_def_cfa_offset 8
 309              		.cfi_offset 4, -8
 310              		.cfi_offset 14, -4
 311              		.loc 1 78 58 view .LVU41
 312 0002 FFF7FEFF 		bl	Default_Handler
 313              	.LVL17:
 314              		.cfi_endproc
 315              	.LFE54:
 317              		.section	.text.RCC_IRQHandler,"ax",%progbits
 318              		.align	1
 319              		.weak	RCC_IRQHandler
 320              		.syntax unified
 321              		.code	16
 322              		.thumb_func
 324              	RCC_IRQHandler:
 325              	.LFB55:
  79:startup_stm32f031x6.c **** __weak void RCC_IRQHandler(void)                        {Default_Handler();}                     
 326              		.loc 1 79 57 view -0
 327              		.cfi_startproc
 328              		@ args = 0, pretend = 0, frame = 0
 329              		@ frame_needed = 0, uses_anonymous_args = 0
 330 0000 10B5     		push	{r4, lr}
 331              	.LCFI9:
 332              		.cfi_def_cfa_offset 8
 333              		.cfi_offset 4, -8
 334              		.cfi_offset 14, -4
 335              		.loc 1 79 58 view .LVU43
 336 0002 FFF7FEFF 		bl	Default_Handler
 337              	.LVL18:
ARM GAS  C:\Users\jisu8\AppData\Local\Temp\ccXJRLjp.s 			page 8


 338              		.cfi_endproc
 339              	.LFE55:
 341              		.section	.text.EXTI0_1_IRQHandler,"ax",%progbits
 342              		.align	1
 343              		.weak	EXTI0_1_IRQHandler
 344              		.syntax unified
 345              		.code	16
 346              		.thumb_func
 348              	EXTI0_1_IRQHandler:
 349              	.LFB56:
  80:startup_stm32f031x6.c **** __weak void EXTI0_1_IRQHandler(void)                    {Default_Handler();}                 
 350              		.loc 1 80 57 view -0
 351              		.cfi_startproc
 352              		@ args = 0, pretend = 0, frame = 0
 353              		@ frame_needed = 0, uses_anonymous_args = 0
 354 0000 10B5     		push	{r4, lr}
 355              	.LCFI10:
 356              		.cfi_def_cfa_offset 8
 357              		.cfi_offset 4, -8
 358              		.cfi_offset 14, -4
 359              		.loc 1 80 58 view .LVU45
 360 0002 FFF7FEFF 		bl	Default_Handler
 361              	.LVL19:
 362              		.cfi_endproc
 363              	.LFE56:
 365              		.section	.text.EXTI2_3_IRQHandler,"ax",%progbits
 366              		.align	1
 367              		.weak	EXTI2_3_IRQHandler
 368              		.syntax unified
 369              		.code	16
 370              		.thumb_func
 372              	EXTI2_3_IRQHandler:
 373              	.LFB57:
  81:startup_stm32f031x6.c **** __weak void EXTI2_3_IRQHandler(void)                    {Default_Handler();}                 
 374              		.loc 1 81 57 view -0
 375              		.cfi_startproc
 376              		@ args = 0, pretend = 0, frame = 0
 377              		@ frame_needed = 0, uses_anonymous_args = 0
 378 0000 10B5     		push	{r4, lr}
 379              	.LCFI11:
 380              		.cfi_def_cfa_offset 8
 381              		.cfi_offset 4, -8
 382              		.cfi_offset 14, -4
 383              		.loc 1 81 58 view .LVU47
 384 0002 FFF7FEFF 		bl	Default_Handler
 385              	.LVL20:
 386              		.cfi_endproc
 387              	.LFE57:
 389              		.section	.text.EXTI4_15_IRQHandler,"ax",%progbits
 390              		.align	1
 391              		.weak	EXTI4_15_IRQHandler
 392              		.syntax unified
 393              		.code	16
 394              		.thumb_func
 396              	EXTI4_15_IRQHandler:
 397              	.LFB58:
  82:startup_stm32f031x6.c **** __weak void EXTI4_15_IRQHandler(void)                   {Default_Handler();}               
ARM GAS  C:\Users\jisu8\AppData\Local\Temp\ccXJRLjp.s 			page 9


 398              		.loc 1 82 57 view -0
 399              		.cfi_startproc
 400              		@ args = 0, pretend = 0, frame = 0
 401              		@ frame_needed = 0, uses_anonymous_args = 0
 402 0000 10B5     		push	{r4, lr}
 403              	.LCFI12:
 404              		.cfi_def_cfa_offset 8
 405              		.cfi_offset 4, -8
 406              		.cfi_offset 14, -4
 407              		.loc 1 82 58 view .LVU49
 408 0002 FFF7FEFF 		bl	Default_Handler
 409              	.LVL21:
 410              		.cfi_endproc
 411              	.LFE58:
 413              		.section	.text.DMA1_Channel1_IRQHandler,"ax",%progbits
 414              		.align	1
 415              		.weak	DMA1_Channel1_IRQHandler
 416              		.syntax unified
 417              		.code	16
 418              		.thumb_func
 420              	DMA1_Channel1_IRQHandler:
 421              	.LFB59:
  83:startup_stm32f031x6.c **** __weak void DMA1_Channel1_IRQHandler(void)              {Default_Handler();}         
 422              		.loc 1 83 57 view -0
 423              		.cfi_startproc
 424              		@ args = 0, pretend = 0, frame = 0
 425              		@ frame_needed = 0, uses_anonymous_args = 0
 426 0000 10B5     		push	{r4, lr}
 427              	.LCFI13:
 428              		.cfi_def_cfa_offset 8
 429              		.cfi_offset 4, -8
 430              		.cfi_offset 14, -4
 431              		.loc 1 83 58 view .LVU51
 432 0002 FFF7FEFF 		bl	Default_Handler
 433              	.LVL22:
 434              		.cfi_endproc
 435              	.LFE59:
 437              		.section	.text.DMA1_Channel2_3_IRQHandler,"ax",%progbits
 438              		.align	1
 439              		.weak	DMA1_Channel2_3_IRQHandler
 440              		.syntax unified
 441              		.code	16
 442              		.thumb_func
 444              	DMA1_Channel2_3_IRQHandler:
 445              	.LFB60:
  84:startup_stm32f031x6.c **** __weak void DMA1_Channel2_3_IRQHandler(void)            {Default_Handler();}         
 446              		.loc 1 84 57 view -0
 447              		.cfi_startproc
 448              		@ args = 0, pretend = 0, frame = 0
 449              		@ frame_needed = 0, uses_anonymous_args = 0
 450 0000 10B5     		push	{r4, lr}
 451              	.LCFI14:
 452              		.cfi_def_cfa_offset 8
 453              		.cfi_offset 4, -8
 454              		.cfi_offset 14, -4
 455              		.loc 1 84 58 view .LVU53
 456 0002 FFF7FEFF 		bl	Default_Handler
ARM GAS  C:\Users\jisu8\AppData\Local\Temp\ccXJRLjp.s 			page 10


 457              	.LVL23:
 458              		.cfi_endproc
 459              	.LFE60:
 461              		.section	.text.DMA1_Channel4_5_IRQHandler,"ax",%progbits
 462              		.align	1
 463              		.weak	DMA1_Channel4_5_IRQHandler
 464              		.syntax unified
 465              		.code	16
 466              		.thumb_func
 468              	DMA1_Channel4_5_IRQHandler:
 469              	.LFB61:
  85:startup_stm32f031x6.c **** __weak void DMA1_Channel4_5_IRQHandler(void)            {Default_Handler();}       
 470              		.loc 1 85 57 view -0
 471              		.cfi_startproc
 472              		@ args = 0, pretend = 0, frame = 0
 473              		@ frame_needed = 0, uses_anonymous_args = 0
 474 0000 10B5     		push	{r4, lr}
 475              	.LCFI15:
 476              		.cfi_def_cfa_offset 8
 477              		.cfi_offset 4, -8
 478              		.cfi_offset 14, -4
 479              		.loc 1 85 58 view .LVU55
 480 0002 FFF7FEFF 		bl	Default_Handler
 481              	.LVL24:
 482              		.cfi_endproc
 483              	.LFE61:
 485              		.section	.text.ADC1_IRQHandler,"ax",%progbits
 486              		.align	1
 487              		.weak	ADC1_IRQHandler
 488              		.syntax unified
 489              		.code	16
 490              		.thumb_func
 492              	ADC1_IRQHandler:
 493              	.LFB62:
  86:startup_stm32f031x6.c **** __weak void ADC1_IRQHandler(void)                       {Default_Handler();}                    
 494              		.loc 1 86 57 view -0
 495              		.cfi_startproc
 496              		@ args = 0, pretend = 0, frame = 0
 497              		@ frame_needed = 0, uses_anonymous_args = 0
 498 0000 10B5     		push	{r4, lr}
 499              	.LCFI16:
 500              		.cfi_def_cfa_offset 8
 501              		.cfi_offset 4, -8
 502              		.cfi_offset 14, -4
 503              		.loc 1 86 58 view .LVU57
 504 0002 FFF7FEFF 		bl	Default_Handler
 505              	.LVL25:
 506              		.cfi_endproc
 507              	.LFE62:
 509              		.section	.text.TIM1_BRK_UP_TRG_COM_IRQHandler,"ax",%progbits
 510              		.align	1
 511              		.weak	TIM1_BRK_UP_TRG_COM_IRQHandler
 512              		.syntax unified
 513              		.code	16
 514              		.thumb_func
 516              	TIM1_BRK_UP_TRG_COM_IRQHandler:
 517              	.LFB63:
ARM GAS  C:\Users\jisu8\AppData\Local\Temp\ccXJRLjp.s 			page 11


  87:startup_stm32f031x6.c **** __weak void TIM1_BRK_UP_TRG_COM_IRQHandler(void)        {Default_Handler();}  
 518              		.loc 1 87 57 view -0
 519              		.cfi_startproc
 520              		@ args = 0, pretend = 0, frame = 0
 521              		@ frame_needed = 0, uses_anonymous_args = 0
 522 0000 10B5     		push	{r4, lr}
 523              	.LCFI17:
 524              		.cfi_def_cfa_offset 8
 525              		.cfi_offset 4, -8
 526              		.cfi_offset 14, -4
 527              		.loc 1 87 58 view .LVU59
 528 0002 FFF7FEFF 		bl	Default_Handler
 529              	.LVL26:
 530              		.cfi_endproc
 531              	.LFE63:
 533              		.section	.text.TIM1_CC_IRQHandler,"ax",%progbits
 534              		.align	1
 535              		.weak	TIM1_CC_IRQHandler
 536              		.syntax unified
 537              		.code	16
 538              		.thumb_func
 540              	TIM1_CC_IRQHandler:
 541              	.LFB64:
  88:startup_stm32f031x6.c **** __weak void TIM1_CC_IRQHandler(void)                    {Default_Handler();}              
 542              		.loc 1 88 57 view -0
 543              		.cfi_startproc
 544              		@ args = 0, pretend = 0, frame = 0
 545              		@ frame_needed = 0, uses_anonymous_args = 0
 546 0000 10B5     		push	{r4, lr}
 547              	.LCFI18:
 548              		.cfi_def_cfa_offset 8
 549              		.cfi_offset 4, -8
 550              		.cfi_offset 14, -4
 551              		.loc 1 88 58 view .LVU61
 552 0002 FFF7FEFF 		bl	Default_Handler
 553              	.LVL27:
 554              		.cfi_endproc
 555              	.LFE64:
 557              		.section	.text.TIM2_IRQHandler,"ax",%progbits
 558              		.align	1
 559              		.weak	TIM2_IRQHandler
 560              		.syntax unified
 561              		.code	16
 562              		.thumb_func
 564              	TIM2_IRQHandler:
 565              	.LFB65:
  89:startup_stm32f031x6.c **** __weak void TIM2_IRQHandler(void)                       {Default_Handler();}               
 566              		.loc 1 89 57 view -0
 567              		.cfi_startproc
 568              		@ args = 0, pretend = 0, frame = 0
 569              		@ frame_needed = 0, uses_anonymous_args = 0
 570 0000 10B5     		push	{r4, lr}
 571              	.LCFI19:
 572              		.cfi_def_cfa_offset 8
 573              		.cfi_offset 4, -8
 574              		.cfi_offset 14, -4
 575              		.loc 1 89 58 view .LVU63
ARM GAS  C:\Users\jisu8\AppData\Local\Temp\ccXJRLjp.s 			page 12


 576 0002 FFF7FEFF 		bl	Default_Handler
 577              	.LVL28:
 578              		.cfi_endproc
 579              	.LFE65:
 581              		.section	.text.TIM3_IRQHandler,"ax",%progbits
 582              		.align	1
 583              		.weak	TIM3_IRQHandler
 584              		.syntax unified
 585              		.code	16
 586              		.thumb_func
 588              	TIM3_IRQHandler:
 589              	.LFB66:
  90:startup_stm32f031x6.c **** __weak void TIM3_IRQHandler(void)                       {Default_Handler();}               
 590              		.loc 1 90 57 view -0
 591              		.cfi_startproc
 592              		@ args = 0, pretend = 0, frame = 0
 593              		@ frame_needed = 0, uses_anonymous_args = 0
 594 0000 10B5     		push	{r4, lr}
 595              	.LCFI20:
 596              		.cfi_def_cfa_offset 8
 597              		.cfi_offset 4, -8
 598              		.cfi_offset 14, -4
 599              		.loc 1 90 58 view .LVU65
 600 0002 FFF7FEFF 		bl	Default_Handler
 601              	.LVL29:
 602              		.cfi_endproc
 603              	.LFE66:
 605              		.section	.text.I2C1_IRQHandler,"ax",%progbits
 606              		.align	1
 607              		.weak	I2C1_IRQHandler
 608              		.syntax unified
 609              		.code	16
 610              		.thumb_func
 612              	I2C1_IRQHandler:
 613              	.LFB70:
  91:startup_stm32f031x6.c **** __weak void TIM14_IRQHandler(void)                      {TIM14_Handler();}             
  92:startup_stm32f031x6.c **** __weak void TIM16_IRQHandler(void)                      {TIM16_Handler();}               
  93:startup_stm32f031x6.c **** __weak void TIM17_IRQHandler(void)                      {TIM17_Handler();}              
  94:startup_stm32f031x6.c **** __weak void I2C1_IRQHandler(void)                       {Default_Handler();}               
 614              		.loc 1 94 57 view -0
 615              		.cfi_startproc
 616              		@ args = 0, pretend = 0, frame = 0
 617              		@ frame_needed = 0, uses_anonymous_args = 0
 618 0000 10B5     		push	{r4, lr}
 619              	.LCFI21:
 620              		.cfi_def_cfa_offset 8
 621              		.cfi_offset 4, -8
 622              		.cfi_offset 14, -4
 623              		.loc 1 94 58 view .LVU67
 624 0002 FFF7FEFF 		bl	Default_Handler
 625              	.LVL30:
 626              		.cfi_endproc
 627              	.LFE70:
 629              		.section	.text.SPI1_IRQHandler,"ax",%progbits
 630              		.align	1
 631              		.weak	SPI1_IRQHandler
 632              		.syntax unified
ARM GAS  C:\Users\jisu8\AppData\Local\Temp\ccXJRLjp.s 			page 13


 633              		.code	16
 634              		.thumb_func
 636              	SPI1_IRQHandler:
 637              	.LFB71:
  95:startup_stm32f031x6.c **** __weak void SPI1_IRQHandler(void)                       {Default_Handler();}       
 638              		.loc 1 95 57 view -0
 639              		.cfi_startproc
 640              		@ args = 0, pretend = 0, frame = 0
 641              		@ frame_needed = 0, uses_anonymous_args = 0
 642 0000 10B5     		push	{r4, lr}
 643              	.LCFI22:
 644              		.cfi_def_cfa_offset 8
 645              		.cfi_offset 4, -8
 646              		.cfi_offset 14, -4
 647              		.loc 1 95 58 view .LVU69
 648 0002 FFF7FEFF 		bl	Default_Handler
 649              	.LVL31:
 650              		.cfi_endproc
 651              	.LFE71:
 653              		.section	.text.USART1_IRQHandler,"ax",%progbits
 654              		.align	1
 655              		.weak	USART1_IRQHandler
 656              		.syntax unified
 657              		.code	16
 658              		.thumb_func
 660              	USART1_IRQHandler:
 661              	.LFB72:
  96:startup_stm32f031x6.c **** __weak void USART1_IRQHandler(void)                     {Default_Handler();}                
 662              		.loc 1 96 57 view -0
 663              		.cfi_startproc
 664              		@ args = 0, pretend = 0, frame = 0
 665              		@ frame_needed = 0, uses_anonymous_args = 0
 666 0000 10B5     		push	{r4, lr}
 667              	.LCFI23:
 668              		.cfi_def_cfa_offset 8
 669              		.cfi_offset 4, -8
 670              		.cfi_offset 14, -4
 671              		.loc 1 96 58 view .LVU71
 672 0002 FFF7FEFF 		bl	Default_Handler
 673              	.LVL32:
 674              		.cfi_endproc
 675              	.LFE72:
 677              		.section	.text.TIM14_Handler,"ax",%progbits
 678              		.align	1
 679              		.global	TIM14_Handler
 680              		.syntax unified
 681              		.code	16
 682              		.thumb_func
 684              	TIM14_Handler:
 685              	.LFB42:
  44:startup_stm32f031x6.c ****     HAL_TIM_IRQHandler(&htim14);
 686              		.loc 1 44 1 view -0
 687              		.cfi_startproc
 688              		@ args = 0, pretend = 0, frame = 0
 689              		@ frame_needed = 0, uses_anonymous_args = 0
 690 0000 10B5     		push	{r4, lr}
 691              	.LCFI24:
ARM GAS  C:\Users\jisu8\AppData\Local\Temp\ccXJRLjp.s 			page 14


 692              		.cfi_def_cfa_offset 8
 693              		.cfi_offset 4, -8
 694              		.cfi_offset 14, -4
  45:startup_stm32f031x6.c **** }
 695              		.loc 1 45 5 view .LVU73
 696 0002 0248     		ldr	r0, .L35
 697 0004 FFF7FEFF 		bl	HAL_TIM_IRQHandler
 698              	.LVL33:
  46:startup_stm32f031x6.c **** 
 699              		.loc 1 46 1 is_stmt 0 view .LVU74
 700              		@ sp needed
 701 0008 10BD     		pop	{r4, pc}
 702              	.L36:
 703 000a C046     		.align	2
 704              	.L35:
 705 000c 00000000 		.word	htim14
 706              		.cfi_endproc
 707              	.LFE42:
 709              		.section	.text.TIM14_IRQHandler,"ax",%progbits
 710              		.align	1
 711              		.weak	TIM14_IRQHandler
 712              		.syntax unified
 713              		.code	16
 714              		.thumb_func
 716              	TIM14_IRQHandler:
 717              	.LFB67:
  91:startup_stm32f031x6.c **** __weak void TIM16_IRQHandler(void)                      {TIM16_Handler();}               
 718              		.loc 1 91 57 is_stmt 1 view -0
 719              		.cfi_startproc
 720              		@ args = 0, pretend = 0, frame = 0
 721              		@ frame_needed = 0, uses_anonymous_args = 0
 722 0000 10B5     		push	{r4, lr}
 723              	.LCFI25:
 724              		.cfi_def_cfa_offset 8
 725              		.cfi_offset 4, -8
 726              		.cfi_offset 14, -4
  91:startup_stm32f031x6.c **** __weak void TIM16_IRQHandler(void)                      {TIM16_Handler();}               
 727              		.loc 1 91 58 view .LVU76
 728 0002 FFF7FEFF 		bl	TIM14_Handler
 729              	.LVL34:
  91:startup_stm32f031x6.c **** __weak void TIM16_IRQHandler(void)                      {TIM16_Handler();}               
 730              		.loc 1 91 74 is_stmt 0 view .LVU77
 731              		@ sp needed
 732 0006 10BD     		pop	{r4, pc}
 733              		.cfi_endproc
 734              	.LFE67:
 736              		.section	.text.TIM16_Handler,"ax",%progbits
 737              		.align	1
 738              		.global	TIM16_Handler
 739              		.syntax unified
 740              		.code	16
 741              		.thumb_func
 743              	TIM16_Handler:
 744              	.LFB43:
  49:startup_stm32f031x6.c ****     HAL_TIM_IRQHandler(&htim16);
 745              		.loc 1 49 1 is_stmt 1 view -0
 746              		.cfi_startproc
ARM GAS  C:\Users\jisu8\AppData\Local\Temp\ccXJRLjp.s 			page 15


 747              		@ args = 0, pretend = 0, frame = 0
 748              		@ frame_needed = 0, uses_anonymous_args = 0
 749 0000 10B5     		push	{r4, lr}
 750              	.LCFI26:
 751              		.cfi_def_cfa_offset 8
 752              		.cfi_offset 4, -8
 753              		.cfi_offset 14, -4
  50:startup_stm32f031x6.c **** }
 754              		.loc 1 50 5 view .LVU79
 755 0002 0248     		ldr	r0, .L39
 756 0004 FFF7FEFF 		bl	HAL_TIM_IRQHandler
 757              	.LVL35:
  51:startup_stm32f031x6.c **** 
 758              		.loc 1 51 1 is_stmt 0 view .LVU80
 759              		@ sp needed
 760 0008 10BD     		pop	{r4, pc}
 761              	.L40:
 762 000a C046     		.align	2
 763              	.L39:
 764 000c 00000000 		.word	htim16
 765              		.cfi_endproc
 766              	.LFE43:
 768              		.section	.text.TIM16_IRQHandler,"ax",%progbits
 769              		.align	1
 770              		.weak	TIM16_IRQHandler
 771              		.syntax unified
 772              		.code	16
 773              		.thumb_func
 775              	TIM16_IRQHandler:
 776              	.LFB68:
  92:startup_stm32f031x6.c **** __weak void TIM17_IRQHandler(void)                      {TIM17_Handler();}              
 777              		.loc 1 92 57 is_stmt 1 view -0
 778              		.cfi_startproc
 779              		@ args = 0, pretend = 0, frame = 0
 780              		@ frame_needed = 0, uses_anonymous_args = 0
 781 0000 10B5     		push	{r4, lr}
 782              	.LCFI27:
 783              		.cfi_def_cfa_offset 8
 784              		.cfi_offset 4, -8
 785              		.cfi_offset 14, -4
  92:startup_stm32f031x6.c **** __weak void TIM17_IRQHandler(void)                      {TIM17_Handler();}              
 786              		.loc 1 92 58 view .LVU82
 787 0002 FFF7FEFF 		bl	TIM16_Handler
 788              	.LVL36:
  92:startup_stm32f031x6.c **** __weak void TIM17_IRQHandler(void)                      {TIM17_Handler();}              
 789              		.loc 1 92 74 is_stmt 0 view .LVU83
 790              		@ sp needed
 791 0006 10BD     		pop	{r4, pc}
 792              		.cfi_endproc
 793              	.LFE68:
 795              		.section	.text.TIM17_Handler,"ax",%progbits
 796              		.align	1
 797              		.global	TIM17_Handler
 798              		.syntax unified
 799              		.code	16
 800              		.thumb_func
 802              	TIM17_Handler:
ARM GAS  C:\Users\jisu8\AppData\Local\Temp\ccXJRLjp.s 			page 16


 803              	.LFB44:
  54:startup_stm32f031x6.c ****     HAL_TIM_IRQHandler(&htim17);
 804              		.loc 1 54 1 is_stmt 1 view -0
 805              		.cfi_startproc
 806              		@ args = 0, pretend = 0, frame = 0
 807              		@ frame_needed = 0, uses_anonymous_args = 0
 808 0000 10B5     		push	{r4, lr}
 809              	.LCFI28:
 810              		.cfi_def_cfa_offset 8
 811              		.cfi_offset 4, -8
 812              		.cfi_offset 14, -4
  55:startup_stm32f031x6.c **** }
 813              		.loc 1 55 5 view .LVU85
 814 0002 0248     		ldr	r0, .L43
 815 0004 FFF7FEFF 		bl	HAL_TIM_IRQHandler
 816              	.LVL37:
  56:startup_stm32f031x6.c **** 
 817              		.loc 1 56 1 is_stmt 0 view .LVU86
 818              		@ sp needed
 819 0008 10BD     		pop	{r4, pc}
 820              	.L44:
 821 000a C046     		.align	2
 822              	.L43:
 823 000c 00000000 		.word	htim17
 824              		.cfi_endproc
 825              	.LFE44:
 827              		.section	.text.TIM17_IRQHandler,"ax",%progbits
 828              		.align	1
 829              		.weak	TIM17_IRQHandler
 830              		.syntax unified
 831              		.code	16
 832              		.thumb_func
 834              	TIM17_IRQHandler:
 835              	.LFB69:
  93:startup_stm32f031x6.c **** __weak void I2C1_IRQHandler(void)                       {Default_Handler();}               
 836              		.loc 1 93 57 is_stmt 1 view -0
 837              		.cfi_startproc
 838              		@ args = 0, pretend = 0, frame = 0
 839              		@ frame_needed = 0, uses_anonymous_args = 0
 840 0000 10B5     		push	{r4, lr}
 841              	.LCFI29:
 842              		.cfi_def_cfa_offset 8
 843              		.cfi_offset 4, -8
 844              		.cfi_offset 14, -4
  93:startup_stm32f031x6.c **** __weak void I2C1_IRQHandler(void)                       {Default_Handler();}               
 845              		.loc 1 93 58 view .LVU88
 846 0002 FFF7FEFF 		bl	TIM17_Handler
 847              	.LVL38:
  93:startup_stm32f031x6.c **** __weak void I2C1_IRQHandler(void)                       {Default_Handler();}               
 848              		.loc 1 93 74 is_stmt 0 view .LVU89
 849              		@ sp needed
 850 0006 10BD     		pop	{r4, pc}
 851              		.cfi_endproc
 852              	.LFE69:
 854              		.section	.text.SystemTick_Handler,"ax",%progbits
 855              		.align	1
 856              		.global	SystemTick_Handler
ARM GAS  C:\Users\jisu8\AppData\Local\Temp\ccXJRLjp.s 			page 17


 857              		.syntax unified
 858              		.code	16
 859              		.thumb_func
 861              	SystemTick_Handler:
 862              	.LFB45:
  59:startup_stm32f031x6.c ****     /* USER CODE BEGIN SysTick_IRQn 0 */
 863              		.loc 1 59 1 is_stmt 1 view -0
 864              		.cfi_startproc
 865              		@ args = 0, pretend = 0, frame = 0
 866              		@ frame_needed = 0, uses_anonymous_args = 0
 867 0000 10B5     		push	{r4, lr}
 868              	.LCFI30:
 869              		.cfi_def_cfa_offset 8
 870              		.cfi_offset 4, -8
 871              		.cfi_offset 14, -4
  63:startup_stm32f031x6.c ****     /* USER CODE BEGIN SysTick_IRQn 1 */
 872              		.loc 1 63 5 view .LVU91
 873 0002 FFF7FEFF 		bl	HAL_IncTick
 874              	.LVL39:
  65:startup_stm32f031x6.c ****     /* USER CODE END SysTick_IRQn 1 */
 875              		.loc 1 65 5 view .LVU92
 876 0006 FFF7FEFF 		bl	Os_Handler_1ms
 877              	.LVL40:
  67:startup_stm32f031x6.c **** 
 878              		.loc 1 67 1 is_stmt 0 view .LVU93
 879              		@ sp needed
 880 000a 10BD     		pop	{r4, pc}
 881              		.cfi_endproc
 882              	.LFE45:
 884              		.section	.text.SysTick_Handler,"ax",%progbits
 885              		.align	1
 886              		.weak	SysTick_Handler
 887              		.syntax unified
 888              		.code	16
 889              		.thumb_func
 891              	SysTick_Handler:
 892              	.LFB50:
  74:startup_stm32f031x6.c **** __weak void WWDG_IRQHandler(void)                       {Default_Handler();}                  
 893              		.loc 1 74 57 is_stmt 1 view -0
 894              		.cfi_startproc
 895              		@ args = 0, pretend = 0, frame = 0
 896              		@ frame_needed = 0, uses_anonymous_args = 0
 897 0000 10B5     		push	{r4, lr}
 898              	.LCFI31:
 899              		.cfi_def_cfa_offset 8
 900              		.cfi_offset 4, -8
 901              		.cfi_offset 14, -4
  74:startup_stm32f031x6.c **** __weak void WWDG_IRQHandler(void)                       {Default_Handler();}                  
 902              		.loc 1 74 58 view .LVU95
 903 0002 FFF7FEFF 		bl	SystemTick_Handler
 904              	.LVL41:
  74:startup_stm32f031x6.c **** __weak void WWDG_IRQHandler(void)                       {Default_Handler();}                  
 905              		.loc 1 74 79 is_stmt 0 view .LVU96
 906              		@ sp needed
 907 0006 10BD     		pop	{r4, pc}
 908              		.cfi_endproc
 909              	.LFE50:
ARM GAS  C:\Users\jisu8\AppData\Local\Temp\ccXJRLjp.s 			page 18


 911              		.global	VectorTable
 912              		.section	.isr_vector,"aw"
 913              		.align	2
 916              	VectorTable:
 917 0000 00000000 		.word	_estack
 918 0004 00000000 		.word	Reset_Handler
 919 0008 00000000 		.word	NMI_Handler
 920 000c 00000000 		.word	HardFault_Handler
 921 0010 00000000 		.word	0
 922 0014 00000000 		.word	0
 923 0018 00000000 		.word	0
 924 001c 00000000 		.word	0
 925 0020 00000000 		.word	0
 926 0024 00000000 		.word	0
 927 0028 00000000 		.word	0
 928 002c 00000000 		.word	SVC_Handler
 929 0030 00000000 		.word	0
 930 0034 00000000 		.word	0
 931 0038 00000000 		.word	PendSV_Handler
 932 003c 00000000 		.word	SysTick_Handler
 933 0040 00000000 		.word	WWDG_IRQHandler
 934 0044 00000000 		.word	PVD_IRQHandler
 935 0048 00000000 		.word	RTC_IRQHandler
 936 004c 00000000 		.word	FLASH_IRQHandler
 937 0050 00000000 		.word	RCC_IRQHandler
 938 0054 00000000 		.word	EXTI0_1_IRQHandler
 939 0058 00000000 		.word	EXTI2_3_IRQHandler
 940 005c 00000000 		.word	EXTI4_15_IRQHandler
 941 0060 00000000 		.word	0
 942 0064 00000000 		.word	DMA1_Channel1_IRQHandler
 943 0068 00000000 		.word	DMA1_Channel2_3_IRQHandler
 944 006c 00000000 		.word	DMA1_Channel4_5_IRQHandler
 945 0070 00000000 		.word	ADC1_IRQHandler
 946 0074 00000000 		.word	TIM1_BRK_UP_TRG_COM_IRQHandler
 947 0078 00000000 		.word	TIM1_CC_IRQHandler
 948 007c 00000000 		.word	TIM2_IRQHandler
 949 0080 00000000 		.word	TIM3_IRQHandler
 950 0084 00000000 		.word	0
 951 0088 00000000 		.word	0
 952 008c 00000000 		.word	TIM14_IRQHandler
 953 0090 00000000 		.word	0
 954 0094 00000000 		.word	TIM16_IRQHandler
 955 0098 00000000 		.word	TIM17_IRQHandler
 956 009c 00000000 		.word	I2C1_IRQHandler
 957 00a0 00000000 		.word	0
 958 00a4 00000000 		.word	SPI1_IRQHandler
 959 00a8 00000000 		.word	0
 960 00ac 00000000 		.word	USART1_IRQHandler
 961 00b0 00000000 		.word	0
 962 00b4 00000000 		.word	0
 963 00b8 00000000 		.word	0
 964 00bc 00000000 		.word	0
 965              		.text
 966              	.Letext0:
 967              		.file 2 "d:\\3.tools\\arm_gcc_toolchain\\arm-none-eabi\\include\\machine\\_default_types.h"
 968              		.file 3 "d:\\3.tools\\arm_gcc_toolchain\\arm-none-eabi\\include\\sys\\_stdint.h"
 969              		.file 4 "Drivers/CMSIS/Device/ST/STM32F0xx/Include/stm32f031x6.h"
ARM GAS  C:\Users\jisu8\AppData\Local\Temp\ccXJRLjp.s 			page 19


 970              		.file 5 "Drivers/STM32F0xx_HAL_Driver/Inc/stm32f0xx_hal_def.h"
 971              		.file 6 "Drivers/STM32F0xx_HAL_Driver/Inc/stm32f0xx_hal_dma.h"
 972              		.file 7 "Drivers/STM32F0xx_HAL_Driver/Inc/stm32f0xx_hal_tim.h"
 973              		.file 8 "Core/Inc/main.h"
 974              		.file 9 "Drivers/STM32F0xx_HAL_Driver/Inc/stm32f0xx_hal.h"
 975              		.file 10 "Drivers/CMSIS/Device/ST/STM32F0xx/Include/system_stm32f0xx.h"
ARM GAS  C:\Users\jisu8\AppData\Local\Temp\ccXJRLjp.s 			page 20

