ARM GAS  C:\Users\jisu8\AppData\Local\Temp\ccQ4KRfY.s 			page 1


   1              		.cpu cortex-m0
   2              		.arch armv6s-m
   3              		.fpu softvfp
   4              		.eabi_attribute 20, 1
   5              		.eabi_attribute 21, 1
   6              		.eabi_attribute 23, 3
   7              		.eabi_attribute 24, 1
   8              		.eabi_attribute 25, 1
   9              		.eabi_attribute 26, 1
  10              		.eabi_attribute 30, 1
  11              		.eabi_attribute 34, 0
  12              		.eabi_attribute 18, 4
  13              		.file	"stm32f0xx_it.c"
  14              		.text
  15              	.Ltext0:
  16              		.cfi_sections	.debug_frame
  17              		.section	.text.HAL_TIM_PeriodElapsedCallback,"ax",%progbits
  18              		.align	1
  19              		.global	HAL_TIM_PeriodElapsedCallback
  20              		.syntax unified
  21              		.code	16
  22              		.thumb_func
  24              	HAL_TIM_PeriodElapsedCallback:
  25              	.LVL0:
  26              	.LFB40:
  27              		.file 1 "Core/Src/stm32f0xx_it.c"
   1:Core/Src/stm32f0xx_it.c **** /* USER CODE BEGIN Header */
   2:Core/Src/stm32f0xx_it.c **** /**
   3:Core/Src/stm32f0xx_it.c ****   ******************************************************************************
   4:Core/Src/stm32f0xx_it.c ****   * @file    stm32f0xx_it.c
   5:Core/Src/stm32f0xx_it.c ****   * @brief   Interrupt Service Routines.
   6:Core/Src/stm32f0xx_it.c ****   ******************************************************************************
   7:Core/Src/stm32f0xx_it.c ****   * @attention
   8:Core/Src/stm32f0xx_it.c ****   *
   9:Core/Src/stm32f0xx_it.c ****   * <h2><center>&copy; Copyright (c) 2022 STMicroelectronics.
  10:Core/Src/stm32f0xx_it.c ****   * All rights reserved.</center></h2>
  11:Core/Src/stm32f0xx_it.c ****   *
  12:Core/Src/stm32f0xx_it.c ****   * This software component is licensed by ST under BSD 3-Clause license,
  13:Core/Src/stm32f0xx_it.c ****   * the "License"; You may not use this file except in compliance with the
  14:Core/Src/stm32f0xx_it.c ****   * License. You may obtain a copy of the License at:
  15:Core/Src/stm32f0xx_it.c ****   *                        opensource.org/licenses/BSD-3-Clause
  16:Core/Src/stm32f0xx_it.c ****   *
  17:Core/Src/stm32f0xx_it.c ****   ******************************************************************************
  18:Core/Src/stm32f0xx_it.c ****   */
  19:Core/Src/stm32f0xx_it.c **** /* USER CODE END Header */
  20:Core/Src/stm32f0xx_it.c **** 
  21:Core/Src/stm32f0xx_it.c **** /* Includes ------------------------------------------------------------------*/
  22:Core/Src/stm32f0xx_it.c **** #include "main.h"
  23:Core/Src/stm32f0xx_it.c **** #include "stm32f0xx_it.h"
  24:Core/Src/stm32f0xx_it.c **** /* Private includes ----------------------------------------------------------*/
  25:Core/Src/stm32f0xx_it.c **** /* USER CODE BEGIN Includes */
  26:Core/Src/stm32f0xx_it.c **** /* USER CODE END Includes */
  27:Core/Src/stm32f0xx_it.c **** 
  28:Core/Src/stm32f0xx_it.c **** /* Private typedef -----------------------------------------------------------*/
  29:Core/Src/stm32f0xx_it.c **** /* USER CODE BEGIN TD */
  30:Core/Src/stm32f0xx_it.c **** 
  31:Core/Src/stm32f0xx_it.c **** /* USER CODE END TD */
ARM GAS  C:\Users\jisu8\AppData\Local\Temp\ccQ4KRfY.s 			page 2


  32:Core/Src/stm32f0xx_it.c **** 
  33:Core/Src/stm32f0xx_it.c **** /* Private define ------------------------------------------------------------*/
  34:Core/Src/stm32f0xx_it.c **** /* USER CODE BEGIN PD */
  35:Core/Src/stm32f0xx_it.c **** 
  36:Core/Src/stm32f0xx_it.c **** /* USER CODE END PD */
  37:Core/Src/stm32f0xx_it.c **** 
  38:Core/Src/stm32f0xx_it.c **** /* Private macro -------------------------------------------------------------*/
  39:Core/Src/stm32f0xx_it.c **** /* USER CODE BEGIN PM */
  40:Core/Src/stm32f0xx_it.c **** 
  41:Core/Src/stm32f0xx_it.c **** /* USER CODE END PM */
  42:Core/Src/stm32f0xx_it.c **** 
  43:Core/Src/stm32f0xx_it.c **** /* Private variables ---------------------------------------------------------*/
  44:Core/Src/stm32f0xx_it.c **** /* USER CODE BEGIN PV */
  45:Core/Src/stm32f0xx_it.c **** 
  46:Core/Src/stm32f0xx_it.c **** /* USER CODE END PV */
  47:Core/Src/stm32f0xx_it.c **** 
  48:Core/Src/stm32f0xx_it.c **** /* Private function prototypes -----------------------------------------------*/
  49:Core/Src/stm32f0xx_it.c **** /* USER CODE BEGIN PFP */
  50:Core/Src/stm32f0xx_it.c **** 
  51:Core/Src/stm32f0xx_it.c **** /* USER CODE END PFP */
  52:Core/Src/stm32f0xx_it.c **** 
  53:Core/Src/stm32f0xx_it.c **** /* Private user code ---------------------------------------------------------*/
  54:Core/Src/stm32f0xx_it.c **** /* USER CODE BEGIN 0 */
  55:Core/Src/stm32f0xx_it.c **** 
  56:Core/Src/stm32f0xx_it.c **** /* USER CODE END 0 */
  57:Core/Src/stm32f0xx_it.c **** 
  58:Core/Src/stm32f0xx_it.c **** /* External variables --------------------------------------------------------*/
  59:Core/Src/stm32f0xx_it.c **** 
  60:Core/Src/stm32f0xx_it.c **** /* USER CODE BEGIN EV */
  61:Core/Src/stm32f0xx_it.c **** 
  62:Core/Src/stm32f0xx_it.c **** /* USER CODE END EV */
  63:Core/Src/stm32f0xx_it.c **** 
  64:Core/Src/stm32f0xx_it.c **** /******************************************************************************/
  65:Core/Src/stm32f0xx_it.c **** /*           Cortex-M0 Processor Interruption and Exception Handlers          */
  66:Core/Src/stm32f0xx_it.c **** /******************************************************************************/
  67:Core/Src/stm32f0xx_it.c **** /**
  68:Core/Src/stm32f0xx_it.c ****   * @brief This function handles Non maskable interrupt.
  69:Core/Src/stm32f0xx_it.c ****   */
  70:Core/Src/stm32f0xx_it.c **** 
  71:Core/Src/stm32f0xx_it.c **** 
  72:Core/Src/stm32f0xx_it.c **** /******************************************************************************/
  73:Core/Src/stm32f0xx_it.c **** /* STM32F0xx Peripheral Interrupt Handlers                                    */
  74:Core/Src/stm32f0xx_it.c **** /* Add here the Interrupt Handlers for the used peripherals.                  */
  75:Core/Src/stm32f0xx_it.c **** /* For the available peripheral interrupt handler names,                      */
  76:Core/Src/stm32f0xx_it.c **** /* please refer to the startup file (startup_stm32f0xx.s).                    */
  77:Core/Src/stm32f0xx_it.c **** /******************************************************************************/
  78:Core/Src/stm32f0xx_it.c **** 
  79:Core/Src/stm32f0xx_it.c **** /* USER CODE BEGIN 1 */
  80:Core/Src/stm32f0xx_it.c **** void HAL_TIM_PeriodElapsedCallback(TIM_HandleTypeDef *htim)
  81:Core/Src/stm32f0xx_it.c **** {
  28              		.loc 1 81 1 view -0
  29              		.cfi_startproc
  30              		@ args = 0, pretend = 0, frame = 0
  31              		@ frame_needed = 0, uses_anonymous_args = 0
  32              		.loc 1 81 1 is_stmt 0 view .LVU1
  33 0000 10B5     		push	{r4, lr}
  34              	.LCFI0:
ARM GAS  C:\Users\jisu8\AppData\Local\Temp\ccQ4KRfY.s 			page 3


  35              		.cfi_def_cfa_offset 8
  36              		.cfi_offset 4, -8
  37              		.cfi_offset 14, -4
  38 0002 0400     		movs	r4, r0
  82:Core/Src/stm32f0xx_it.c ****     if(htim->Instance == TIM14)
  39              		.loc 1 82 5 is_stmt 1 view .LVU2
  40              		.loc 1 82 7 is_stmt 0 view .LVU3
  41 0004 0A4B     		ldr	r3, .L8
  42 0006 0268     		ldr	r2, [r0]
  43 0008 9A42     		cmp	r2, r3
  44 000a 08D0     		beq	.L5
  45              	.LVL1:
  46              	.L2:
  83:Core/Src/stm32f0xx_it.c ****     {
  84:Core/Src/stm32f0xx_it.c ****         Os_Handler_10ms();
  85:Core/Src/stm32f0xx_it.c ****     }
  86:Core/Src/stm32f0xx_it.c ****     if(htim->Instance == TIM16)
  47              		.loc 1 86 5 is_stmt 1 view .LVU4
  48              		.loc 1 86 7 is_stmt 0 view .LVU5
  49 000c 094B     		ldr	r3, .L8+4
  50 000e 2268     		ldr	r2, [r4]
  51 0010 9A42     		cmp	r2, r3
  52 0012 07D0     		beq	.L6
  53              	.L3:
  87:Core/Src/stm32f0xx_it.c ****     {
  88:Core/Src/stm32f0xx_it.c ****         Os_Handler_5ms();
  89:Core/Src/stm32f0xx_it.c ****     }
  90:Core/Src/stm32f0xx_it.c ****     if(htim->Instance == TIM17)
  54              		.loc 1 90 5 is_stmt 1 view .LVU6
  55              		.loc 1 90 12 is_stmt 0 view .LVU7
  56 0014 2268     		ldr	r2, [r4]
  57              		.loc 1 90 7 view .LVU8
  58 0016 084B     		ldr	r3, .L8+8
  59 0018 9A42     		cmp	r2, r3
  60 001a 06D0     		beq	.L7
  61              	.L1:
  91:Core/Src/stm32f0xx_it.c ****     {
  92:Core/Src/stm32f0xx_it.c ****         Os_Time_Handler();
  93:Core/Src/stm32f0xx_it.c ****     }
  94:Core/Src/stm32f0xx_it.c **** }
  62              		.loc 1 94 1 view .LVU9
  63              		@ sp needed
  64              	.LVL2:
  65              		.loc 1 94 1 view .LVU10
  66 001c 10BD     		pop	{r4, pc}
  67              	.LVL3:
  68              	.L5:
  84:Core/Src/stm32f0xx_it.c ****     }
  69              		.loc 1 84 9 is_stmt 1 view .LVU11
  70 001e FFF7FEFF 		bl	Os_Handler_10ms
  71              	.LVL4:
  84:Core/Src/stm32f0xx_it.c ****     }
  72              		.loc 1 84 9 is_stmt 0 view .LVU12
  73 0022 F3E7     		b	.L2
  74              	.L6:
  88:Core/Src/stm32f0xx_it.c ****     }
  75              		.loc 1 88 9 is_stmt 1 view .LVU13
ARM GAS  C:\Users\jisu8\AppData\Local\Temp\ccQ4KRfY.s 			page 4


  76 0024 FFF7FEFF 		bl	Os_Handler_5ms
  77              	.LVL5:
  78 0028 F4E7     		b	.L3
  79              	.L7:
  92:Core/Src/stm32f0xx_it.c ****     }
  80              		.loc 1 92 9 view .LVU14
  81 002a FFF7FEFF 		bl	Os_Time_Handler
  82              	.LVL6:
  83              		.loc 1 94 1 is_stmt 0 view .LVU15
  84 002e F5E7     		b	.L1
  85              	.L9:
  86              		.align	2
  87              	.L8:
  88 0030 00200040 		.word	1073750016
  89 0034 00440140 		.word	1073824768
  90 0038 00480140 		.word	1073825792
  91              		.cfi_endproc
  92              	.LFE40:
  94              		.text
  95              	.Letext0:
  96              		.file 2 "d:\\3.tools\\arm_gcc_toolchain\\arm-none-eabi\\include\\machine\\_default_types.h"
  97              		.file 3 "d:\\3.tools\\arm_gcc_toolchain\\arm-none-eabi\\include\\sys\\_stdint.h"
  98              		.file 4 "Drivers/CMSIS/Device/ST/STM32F0xx/Include/stm32f031x6.h"
  99              		.file 5 "Drivers/STM32F0xx_HAL_Driver/Inc/stm32f0xx_hal_def.h"
 100              		.file 6 "Drivers/STM32F0xx_HAL_Driver/Inc/stm32f0xx_hal_dma.h"
 101              		.file 7 "Drivers/STM32F0xx_HAL_Driver/Inc/stm32f0xx_hal_tim.h"
 102              		.file 8 "Core/Inc/os.h"
ARM GAS  C:\Users\jisu8\AppData\Local\Temp\ccQ4KRfY.s 			page 5


DEFINED SYMBOLS
                            *ABS*:00000000 stm32f0xx_it.c
C:\Users\jisu8\AppData\Local\Temp\ccQ4KRfY.s:18     .text.HAL_TIM_PeriodElapsedCallback:00000000 $t
C:\Users\jisu8\AppData\Local\Temp\ccQ4KRfY.s:24     .text.HAL_TIM_PeriodElapsedCallback:00000000 HAL_TIM_PeriodElapsedCallback
C:\Users\jisu8\AppData\Local\Temp\ccQ4KRfY.s:88     .text.HAL_TIM_PeriodElapsedCallback:00000030 $d

UNDEFINED SYMBOLS
Os_Handler_10ms
Os_Handler_5ms
Os_Time_Handler
